

Microchip MPLAB XC8 Assembler V2.40 build 20220703182018 
                                                                                               Tue Mar 21 18:06:40 2023

Microchip MPLAB XC8 C Compiler v2.40 (Free license) build 20220703182018 Og1 
     1                           	processor	16F1826
     2                           	pagewidth 120
     3                           	opt	flic
     4                           	psect	idataBANK0,global,class=CODE,delta=2,noexec
     5                           	psect	cinit,global,class=CODE,merge=1,delta=2
     6                           	psect	bssCOMMON,global,class=COMMON,space=1,delta=1,noexec
     7                           	psect	bssBANK0,global,class=BANK0,space=1,delta=1,noexec
     8                           	psect	dataBANK0,global,class=BANK0,space=1,delta=1,noexec
     9                           	psect	cstackCOMMON,global,class=COMMON,space=1,delta=1,noexec
    10                           	psect	cstackBANK0,global,class=BANK0,space=1,delta=1,noexec
    11                           	psect	maintext,global,class=CODE,merge=1,split=1,delta=2
    12                           	psect	text1,local,class=CODE,merge=1,delta=2
    13                           	psect	text2,local,class=CODE,merge=1,delta=2
    14                           	psect	text3,local,class=CODE,merge=1,delta=2
    15                           	psect	text4,local,class=CODE,merge=1,delta=2
    16                           	psect	text5,local,class=CODE,merge=1,delta=2
    17                           	psect	text6,local,class=CODE,merge=1,delta=2
    18                           	psect	text7,local,class=CODE,merge=1,delta=2
    19                           	psect	intentry,global,class=CODE,delta=2
    20                           	psect	text9,local,class=CODE,merge=1,delta=2
    21                           	psect	text10,local,class=CODE,merge=1,delta=2
    22                           	psect	idloc,global,abs,ovrld,class=IDLOC,space=5,delta=2,noexec
    23                           	psect	config,global,abs,ovrld,class=CONFIG,space=4,delta=2,noexec
    24                           	dabs	1,0x7E,2
    25     0000                     
    26                           ; Version 2.40
    27                           ; Generated 17/11/2021 GMT
    28                           ; 
    29                           ; Copyright © 2021, Microchip Technology Inc. and its subsidiaries ("Microchip")
    30                           ; All rights reserved.
    31                           ; 
    32                           ; This software is developed by Microchip Technology Inc. and its subsidiaries ("Microch
      +                          ip").
    33                           ; 
    34                           ; Redistribution and use in source and binary forms, with or without modification, are
    35                           ; permitted provided that the following conditions are met:
    36                           ; 
    37                           ;     1. Redistributions of source code must retain the above copyright notice, this lis
      +                          t of
    38                           ;        conditions and the following disclaimer.
    39                           ; 
    40                           ;     2. Redistributions in binary form must reproduce the above copyright notice, this 
      +                          list
    41                           ;        of conditions and the following disclaimer in the documentation and/or other
    42                           ;        materials provided with the distribution. Publication is not required when
    43                           ;        this file is used in an embedded application.
    44                           ; 
    45                           ;     3. Microchip's name may not be used to endorse or promote products derived from th
      +                          is
    46                           ;        software without specific prior written permission.
    47                           ; 
    48                           ; THIS SOFTWARE IS PROVIDED BY MICROCHIP "AS IS" AND ANY EXPRESS OR IMPLIED WARRANTIES,
    49                           ; INCLUDING, BUT NOT LIMITED TO, THE IMPLIED WARRANTIES OF MERCHANTABILITY AND FITNESS F
      +                          OR
    50                           ; PURPOSE ARE DISCLAIMED.  IN NO EVENT SHALL MICROCHIP BE LIABLE FOR ANY DIRECT, INDIREC
      +                          T,
    51                           ; INCIDENTAL, SPECIAL, EXEMPLARY, OR CONSEQUENTIAL DAMAGES (INCLUDING BUT NOT LIMITED TO
    52                           ; PROCUREMENT OF SUBSTITUTE GOODS OR SERVICES; LOSS OF USE, DATA OR PROFITS; OR BUSINESS
    53                           ; INTERRUPTION) HOWSOEVER CAUSED AND ON ANY THEORY OF LIABILITY, WHETHER IN CONTRACT, ST
      +                          RICT
    54                           ; LIABILITY, OR TORT (INCLUDING NEGLIGENCE OR OTHERWISE) ARISING IN ANY WAY OUT OF THE U
      +                          SE OF
    55                           ; THIS SOFTWARE, EVEN IF ADVISED OF THE POSSIBILITY OF SUCH DAMAGE.
    56                           ; 
    57                           ; 
    58                           ; Code-generator required, PIC16F1826 Definitions
    59                           ; 
    60                           ; SFR Addresses
    61     0000                     	;# 
    62     0001                     	;# 
    63     0002                     	;# 
    64     0003                     	;# 
    65     0004                     	;# 
    66     0005                     	;# 
    67     0006                     	;# 
    68     0007                     	;# 
    69     0008                     	;# 
    70     0009                     	;# 
    71     000A                     	;# 
    72     000B                     	;# 
    73     000C                     	;# 
    74     000D                     	;# 
    75     0011                     	;# 
    76     0012                     	;# 
    77     0015                     	;# 
    78     0016                     	;# 
    79     0016                     	;# 
    80     0017                     	;# 
    81     0018                     	;# 
    82     0019                     	;# 
    83     001A                     	;# 
    84     001B                     	;# 
    85     001C                     	;# 
    86     001E                     	;# 
    87     001F                     	;# 
    88     008C                     	;# 
    89     008D                     	;# 
    90     0091                     	;# 
    91     0092                     	;# 
    92     0095                     	;# 
    93     0096                     	;# 
    94     0097                     	;# 
    95     0098                     	;# 
    96     0099                     	;# 
    97     009A                     	;# 
    98     009B                     	;# 
    99     009B                     	;# 
   100     009C                     	;# 
   101     009D                     	;# 
   102     009E                     	;# 
   103     010C                     	;# 
   104     010D                     	;# 
   105     0111                     	;# 
   106     0112                     	;# 
   107     0113                     	;# 
   108     0114                     	;# 
   109     0115                     	;# 
   110     0116                     	;# 
   111     0117                     	;# 
   112     0118                     	;# 
   113     0119                     	;# 
   114     011A                     	;# 
   115     011B                     	;# 
   116     011D                     	;# 
   117     011E                     	;# 
   118     018C                     	;# 
   119     018D                     	;# 
   120     0191                     	;# 
   121     0191                     	;# 
   122     0192                     	;# 
   123     0193                     	;# 
   124     0193                     	;# 
   125     0193                     	;# 
   126     0194                     	;# 
   127     0195                     	;# 
   128     0196                     	;# 
   129     0199                     	;# 
   130     019A                     	;# 
   131     019B                     	;# 
   132     019B                     	;# 
   133     019B                     	;# 
   134     019B                     	;# 
   135     019C                     	;# 
   136     019C                     	;# 
   137     019D                     	;# 
   138     019E                     	;# 
   139     019F                     	;# 
   140     020C                     	;# 
   141     020D                     	;# 
   142     0211                     	;# 
   143     0211                     	;# 
   144     0212                     	;# 
   145     0212                     	;# 
   146     0213                     	;# 
   147     0213                     	;# 
   148     0214                     	;# 
   149     0214                     	;# 
   150     0215                     	;# 
   151     0215                     	;# 
   152     0215                     	;# 
   153     0216                     	;# 
   154     0216                     	;# 
   155     0217                     	;# 
   156     0217                     	;# 
   157     0291                     	;# 
   158     0291                     	;# 
   159     0292                     	;# 
   160     0293                     	;# 
   161     0294                     	;# 
   162     0295                     	;# 
   163     0295                     	;# 
   164     0296                     	;# 
   165     0394                     	;# 
   166     0395                     	;# 
   167     0396                     	;# 
   168     039A                     	;# 
   169     039C                     	;# 
   170     039D                     	;# 
   171     039E                     	;# 
   172     039F                     	;# 
   173     0FE4                     	;# 
   174     0FE5                     	;# 
   175     0FE6                     	;# 
   176     0FE7                     	;# 
   177     0FE8                     	;# 
   178     0FE9                     	;# 
   179     0FEA                     	;# 
   180     0FEB                     	;# 
   181     0FED                     	;# 
   182     0FEE                     	;# 
   183     0FEF                     	;# 
   184     0000                     	;# 
   185     0001                     	;# 
   186     0002                     	;# 
   187     0003                     	;# 
   188     0004                     	;# 
   189     0005                     	;# 
   190     0006                     	;# 
   191     0007                     	;# 
   192     0008                     	;# 
   193     0009                     	;# 
   194     000A                     	;# 
   195     000B                     	;# 
   196     000C                     	;# 
   197     000D                     	;# 
   198     0011                     	;# 
   199     0012                     	;# 
   200     0015                     	;# 
   201     0016                     	;# 
   202     0016                     	;# 
   203     0017                     	;# 
   204     0018                     	;# 
   205     0019                     	;# 
   206     001A                     	;# 
   207     001B                     	;# 
   208     001C                     	;# 
   209     001E                     	;# 
   210     001F                     	;# 
   211     008C                     	;# 
   212     008D                     	;# 
   213     0091                     	;# 
   214     0092                     	;# 
   215     0095                     	;# 
   216     0096                     	;# 
   217     0097                     	;# 
   218     0098                     	;# 
   219     0099                     	;# 
   220     009A                     	;# 
   221     009B                     	;# 
   222     009B                     	;# 
   223     009C                     	;# 
   224     009D                     	;# 
   225     009E                     	;# 
   226     010C                     	;# 
   227     010D                     	;# 
   228     0111                     	;# 
   229     0112                     	;# 
   230     0113                     	;# 
   231     0114                     	;# 
   232     0115                     	;# 
   233     0116                     	;# 
   234     0117                     	;# 
   235     0118                     	;# 
   236     0119                     	;# 
   237     011A                     	;# 
   238     011B                     	;# 
   239     011D                     	;# 
   240     011E                     	;# 
   241     018C                     	;# 
   242     018D                     	;# 
   243     0191                     	;# 
   244     0191                     	;# 
   245     0192                     	;# 
   246     0193                     	;# 
   247     0193                     	;# 
   248     0193                     	;# 
   249     0194                     	;# 
   250     0195                     	;# 
   251     0196                     	;# 
   252     0199                     	;# 
   253     019A                     	;# 
   254     019B                     	;# 
   255     019B                     	;# 
   256     019B                     	;# 
   257     019B                     	;# 
   258     019C                     	;# 
   259     019C                     	;# 
   260     019D                     	;# 
   261     019E                     	;# 
   262     019F                     	;# 
   263     020C                     	;# 
   264     020D                     	;# 
   265     0211                     	;# 
   266     0211                     	;# 
   267     0212                     	;# 
   268     0212                     	;# 
   269     0213                     	;# 
   270     0213                     	;# 
   271     0214                     	;# 
   272     0214                     	;# 
   273     0215                     	;# 
   274     0215                     	;# 
   275     0215                     	;# 
   276     0216                     	;# 
   277     0216                     	;# 
   278     0217                     	;# 
   279     0217                     	;# 
   280     0291                     	;# 
   281     0291                     	;# 
   282     0292                     	;# 
   283     0293                     	;# 
   284     0294                     	;# 
   285     0295                     	;# 
   286     0295                     	;# 
   287     0296                     	;# 
   288     0394                     	;# 
   289     0395                     	;# 
   290     0396                     	;# 
   291     039A                     	;# 
   292     039C                     	;# 
   293     039D                     	;# 
   294     039E                     	;# 
   295     039F                     	;# 
   296     0FE4                     	;# 
   297     0FE5                     	;# 
   298     0FE6                     	;# 
   299     0FE7                     	;# 
   300     0FE8                     	;# 
   301     0FE9                     	;# 
   302     0FEA                     	;# 
   303     0FEB                     	;# 
   304     0FED                     	;# 
   305     0FEE                     	;# 
   306     0FEF                     	;# 
   307     0000                     	;# 
   308     0001                     	;# 
   309     0002                     	;# 
   310     0003                     	;# 
   311     0004                     	;# 
   312     0005                     	;# 
   313     0006                     	;# 
   314     0007                     	;# 
   315     0008                     	;# 
   316     0009                     	;# 
   317     000A                     	;# 
   318     000B                     	;# 
   319     000C                     	;# 
   320     000D                     	;# 
   321     0011                     	;# 
   322     0012                     	;# 
   323     0015                     	;# 
   324     0016                     	;# 
   325     0016                     	;# 
   326     0017                     	;# 
   327     0018                     	;# 
   328     0019                     	;# 
   329     001A                     	;# 
   330     001B                     	;# 
   331     001C                     	;# 
   332     001E                     	;# 
   333     001F                     	;# 
   334     008C                     	;# 
   335     008D                     	;# 
   336     0091                     	;# 
   337     0092                     	;# 
   338     0095                     	;# 
   339     0096                     	;# 
   340     0097                     	;# 
   341     0098                     	;# 
   342     0099                     	;# 
   343     009A                     	;# 
   344     009B                     	;# 
   345     009B                     	;# 
   346     009C                     	;# 
   347     009D                     	;# 
   348     009E                     	;# 
   349     010C                     	;# 
   350     010D                     	;# 
   351     0111                     	;# 
   352     0112                     	;# 
   353     0113                     	;# 
   354     0114                     	;# 
   355     0115                     	;# 
   356     0116                     	;# 
   357     0117                     	;# 
   358     0118                     	;# 
   359     0119                     	;# 
   360     011A                     	;# 
   361     011B                     	;# 
   362     011D                     	;# 
   363     011E                     	;# 
   364     018C                     	;# 
   365     018D                     	;# 
   366     0191                     	;# 
   367     0191                     	;# 
   368     0192                     	;# 
   369     0193                     	;# 
   370     0193                     	;# 
   371     0193                     	;# 
   372     0194                     	;# 
   373     0195                     	;# 
   374     0196                     	;# 
   375     0199                     	;# 
   376     019A                     	;# 
   377     019B                     	;# 
   378     019B                     	;# 
   379     019B                     	;# 
   380     019B                     	;# 
   381     019C                     	;# 
   382     019C                     	;# 
   383     019D                     	;# 
   384     019E                     	;# 
   385     019F                     	;# 
   386     020C                     	;# 
   387     020D                     	;# 
   388     0211                     	;# 
   389     0211                     	;# 
   390     0212                     	;# 
   391     0212                     	;# 
   392     0213                     	;# 
   393     0213                     	;# 
   394     0214                     	;# 
   395     0214                     	;# 
   396     0215                     	;# 
   397     0215                     	;# 
   398     0215                     	;# 
   399     0216                     	;# 
   400     0216                     	;# 
   401     0217                     	;# 
   402     0217                     	;# 
   403     0291                     	;# 
   404     0291                     	;# 
   405     0292                     	;# 
   406     0293                     	;# 
   407     0294                     	;# 
   408     0295                     	;# 
   409     0295                     	;# 
   410     0296                     	;# 
   411     0394                     	;# 
   412     0395                     	;# 
   413     0396                     	;# 
   414     039A                     	;# 
   415     039C                     	;# 
   416     039D                     	;# 
   417     039E                     	;# 
   418     039F                     	;# 
   419     0FE4                     	;# 
   420     0FE5                     	;# 
   421     0FE6                     	;# 
   422     0FE7                     	;# 
   423     0FE8                     	;# 
   424     0FE9                     	;# 
   425     0FEA                     	;# 
   426     0FEB                     	;# 
   427     0FED                     	;# 
   428     0FEE                     	;# 
   429     0FEF                     	;# 
   430     0000                     	;# 
   431     0001                     	;# 
   432     0002                     	;# 
   433     0003                     	;# 
   434     0004                     	;# 
   435     0005                     	;# 
   436     0006                     	;# 
   437     0007                     	;# 
   438     0008                     	;# 
   439     0009                     	;# 
   440     000A                     	;# 
   441     000B                     	;# 
   442     000C                     	;# 
   443     000D                     	;# 
   444     0011                     	;# 
   445     0012                     	;# 
   446     0015                     	;# 
   447     0016                     	;# 
   448     0016                     	;# 
   449     0017                     	;# 
   450     0018                     	;# 
   451     0019                     	;# 
   452     001A                     	;# 
   453     001B                     	;# 
   454     001C                     	;# 
   455     001E                     	;# 
   456     001F                     	;# 
   457     008C                     	;# 
   458     008D                     	;# 
   459     0091                     	;# 
   460     0092                     	;# 
   461     0095                     	;# 
   462     0096                     	;# 
   463     0097                     	;# 
   464     0098                     	;# 
   465     0099                     	;# 
   466     009A                     	;# 
   467     009B                     	;# 
   468     009B                     	;# 
   469     009C                     	;# 
   470     009D                     	;# 
   471     009E                     	;# 
   472     010C                     	;# 
   473     010D                     	;# 
   474     0111                     	;# 
   475     0112                     	;# 
   476     0113                     	;# 
   477     0114                     	;# 
   478     0115                     	;# 
   479     0116                     	;# 
   480     0117                     	;# 
   481     0118                     	;# 
   482     0119                     	;# 
   483     011A                     	;# 
   484     011B                     	;# 
   485     011D                     	;# 
   486     011E                     	;# 
   487     018C                     	;# 
   488     018D                     	;# 
   489     0191                     	;# 
   490     0191                     	;# 
   491     0192                     	;# 
   492     0193                     	;# 
   493     0193                     	;# 
   494     0193                     	;# 
   495     0194                     	;# 
   496     0195                     	;# 
   497     0196                     	;# 
   498     0199                     	;# 
   499     019A                     	;# 
   500     019B                     	;# 
   501     019B                     	;# 
   502     019B                     	;# 
   503     019B                     	;# 
   504     019C                     	;# 
   505     019C                     	;# 
   506     019D                     	;# 
   507     019E                     	;# 
   508     019F                     	;# 
   509     020C                     	;# 
   510     020D                     	;# 
   511     0211                     	;# 
   512     0211                     	;# 
   513     0212                     	;# 
   514     0212                     	;# 
   515     0213                     	;# 
   516     0213                     	;# 
   517     0214                     	;# 
   518     0214                     	;# 
   519     0215                     	;# 
   520     0215                     	;# 
   521     0215                     	;# 
   522     0216                     	;# 
   523     0216                     	;# 
   524     0217                     	;# 
   525     0217                     	;# 
   526     0291                     	;# 
   527     0291                     	;# 
   528     0292                     	;# 
   529     0293                     	;# 
   530     0294                     	;# 
   531     0295                     	;# 
   532     0295                     	;# 
   533     0296                     	;# 
   534     0394                     	;# 
   535     0395                     	;# 
   536     0396                     	;# 
   537     039A                     	;# 
   538     039C                     	;# 
   539     039D                     	;# 
   540     039E                     	;# 
   541     039F                     	;# 
   542     0FE4                     	;# 
   543     0FE5                     	;# 
   544     0FE6                     	;# 
   545     0FE7                     	;# 
   546     0FE8                     	;# 
   547     0FE9                     	;# 
   548     0FEA                     	;# 
   549     0FEB                     	;# 
   550     0FED                     	;# 
   551     0FEE                     	;# 
   552     0FEF                     	;# 
   553     0000                     	;# 
   554     0001                     	;# 
   555     0002                     	;# 
   556     0003                     	;# 
   557     0004                     	;# 
   558     0005                     	;# 
   559     0006                     	;# 
   560     0007                     	;# 
   561     0008                     	;# 
   562     0009                     	;# 
   563     000A                     	;# 
   564     000B                     	;# 
   565     000C                     	;# 
   566     000D                     	;# 
   567     0011                     	;# 
   568     0012                     	;# 
   569     0015                     	;# 
   570     0016                     	;# 
   571     0016                     	;# 
   572     0017                     	;# 
   573     0018                     	;# 
   574     0019                     	;# 
   575     001A                     	;# 
   576     001B                     	;# 
   577     001C                     	;# 
   578     001E                     	;# 
   579     001F                     	;# 
   580     008C                     	;# 
   581     008D                     	;# 
   582     0091                     	;# 
   583     0092                     	;# 
   584     0095                     	;# 
   585     0096                     	;# 
   586     0097                     	;# 
   587     0098                     	;# 
   588     0099                     	;# 
   589     009A                     	;# 
   590     009B                     	;# 
   591     009B                     	;# 
   592     009C                     	;# 
   593     009D                     	;# 
   594     009E                     	;# 
   595     010C                     	;# 
   596     010D                     	;# 
   597     0111                     	;# 
   598     0112                     	;# 
   599     0113                     	;# 
   600     0114                     	;# 
   601     0115                     	;# 
   602     0116                     	;# 
   603     0117                     	;# 
   604     0118                     	;# 
   605     0119                     	;# 
   606     011A                     	;# 
   607     011B                     	;# 
   608     011D                     	;# 
   609     011E                     	;# 
   610     018C                     	;# 
   611     018D                     	;# 
   612     0191                     	;# 
   613     0191                     	;# 
   614     0192                     	;# 
   615     0193                     	;# 
   616     0193                     	;# 
   617     0193                     	;# 
   618     0194                     	;# 
   619     0195                     	;# 
   620     0196                     	;# 
   621     0199                     	;# 
   622     019A                     	;# 
   623     019B                     	;# 
   624     019B                     	;# 
   625     019B                     	;# 
   626     019B                     	;# 
   627     019C                     	;# 
   628     019C                     	;# 
   629     019D                     	;# 
   630     019E                     	;# 
   631     019F                     	;# 
   632     020C                     	;# 
   633     020D                     	;# 
   634     0211                     	;# 
   635     0211                     	;# 
   636     0212                     	;# 
   637     0212                     	;# 
   638     0213                     	;# 
   639     0213                     	;# 
   640     0214                     	;# 
   641     0214                     	;# 
   642     0215                     	;# 
   643     0215                     	;# 
   644     0215                     	;# 
   645     0216                     	;# 
   646     0216                     	;# 
   647     0217                     	;# 
   648     0217                     	;# 
   649     0291                     	;# 
   650     0291                     	;# 
   651     0292                     	;# 
   652     0293                     	;# 
   653     0294                     	;# 
   654     0295                     	;# 
   655     0295                     	;# 
   656     0296                     	;# 
   657     0394                     	;# 
   658     0395                     	;# 
   659     0396                     	;# 
   660     039A                     	;# 
   661     039C                     	;# 
   662     039D                     	;# 
   663     039E                     	;# 
   664     039F                     	;# 
   665     0FE4                     	;# 
   666     0FE5                     	;# 
   667     0FE6                     	;# 
   668     0FE7                     	;# 
   669     0FE8                     	;# 
   670     0FE9                     	;# 
   671     0FEA                     	;# 
   672     0FEB                     	;# 
   673     0FED                     	;# 
   674     0FEE                     	;# 
   675     0FEF                     	;# 
   676     0000                     	;# 
   677     0001                     	;# 
   678     0002                     	;# 
   679     0003                     	;# 
   680     0004                     	;# 
   681     0005                     	;# 
   682     0006                     	;# 
   683     0007                     	;# 
   684     0008                     	;# 
   685     0009                     	;# 
   686     000A                     	;# 
   687     000B                     	;# 
   688     000C                     	;# 
   689     000D                     	;# 
   690     0011                     	;# 
   691     0012                     	;# 
   692     0015                     	;# 
   693     0016                     	;# 
   694     0016                     	;# 
   695     0017                     	;# 
   696     0018                     	;# 
   697     0019                     	;# 
   698     001A                     	;# 
   699     001B                     	;# 
   700     001C                     	;# 
   701     001E                     	;# 
   702     001F                     	;# 
   703     008C                     	;# 
   704     008D                     	;# 
   705     0091                     	;# 
   706     0092                     	;# 
   707     0095                     	;# 
   708     0096                     	;# 
   709     0097                     	;# 
   710     0098                     	;# 
   711     0099                     	;# 
   712     009A                     	;# 
   713     009B                     	;# 
   714     009B                     	;# 
   715     009C                     	;# 
   716     009D                     	;# 
   717     009E                     	;# 
   718     010C                     	;# 
   719     010D                     	;# 
   720     0111                     	;# 
   721     0112                     	;# 
   722     0113                     	;# 
   723     0114                     	;# 
   724     0115                     	;# 
   725     0116                     	;# 
   726     0117                     	;# 
   727     0118                     	;# 
   728     0119                     	;# 
   729     011A                     	;# 
   730     011B                     	;# 
   731     011D                     	;# 
   732     011E                     	;# 
   733     018C                     	;# 
   734     018D                     	;# 
   735     0191                     	;# 
   736     0191                     	;# 
   737     0192                     	;# 
   738     0193                     	;# 
   739     0193                     	;# 
   740     0193                     	;# 
   741     0194                     	;# 
   742     0195                     	;# 
   743     0196                     	;# 
   744     0199                     	;# 
   745     019A                     	;# 
   746     019B                     	;# 
   747     019B                     	;# 
   748     019B                     	;# 
   749     019B                     	;# 
   750     019C                     	;# 
   751     019C                     	;# 
   752     019D                     	;# 
   753     019E                     	;# 
   754     019F                     	;# 
   755     020C                     	;# 
   756     020D                     	;# 
   757     0211                     	;# 
   758     0211                     	;# 
   759     0212                     	;# 
   760     0212                     	;# 
   761     0213                     	;# 
   762     0213                     	;# 
   763     0214                     	;# 
   764     0214                     	;# 
   765     0215                     	;# 
   766     0215                     	;# 
   767     0215                     	;# 
   768     0216                     	;# 
   769     0216                     	;# 
   770     0217                     	;# 
   771     0217                     	;# 
   772     0291                     	;# 
   773     0291                     	;# 
   774     0292                     	;# 
   775     0293                     	;# 
   776     0294                     	;# 
   777     0295                     	;# 
   778     0295                     	;# 
   779     0296                     	;# 
   780     0394                     	;# 
   781     0395                     	;# 
   782     0396                     	;# 
   783     039A                     	;# 
   784     039C                     	;# 
   785     039D                     	;# 
   786     039E                     	;# 
   787     039F                     	;# 
   788     0FE4                     	;# 
   789     0FE5                     	;# 
   790     0FE6                     	;# 
   791     0FE7                     	;# 
   792     0FE8                     	;# 
   793     0FE9                     	;# 
   794     0FEA                     	;# 
   795     0FEB                     	;# 
   796     0FED                     	;# 
   797     0FEE                     	;# 
   798     0FEF                     	;# 
   799     0000                     	;# 
   800     0001                     	;# 
   801     0002                     	;# 
   802     0003                     	;# 
   803     0004                     	;# 
   804     0005                     	;# 
   805     0006                     	;# 
   806     0007                     	;# 
   807     0008                     	;# 
   808     0009                     	;# 
   809     000A                     	;# 
   810     000B                     	;# 
   811     000C                     	;# 
   812     000D                     	;# 
   813     0011                     	;# 
   814     0012                     	;# 
   815     0015                     	;# 
   816     0016                     	;# 
   817     0016                     	;# 
   818     0017                     	;# 
   819     0018                     	;# 
   820     0019                     	;# 
   821     001A                     	;# 
   822     001B                     	;# 
   823     001C                     	;# 
   824     001E                     	;# 
   825     001F                     	;# 
   826     008C                     	;# 
   827     008D                     	;# 
   828     0091                     	;# 
   829     0092                     	;# 
   830     0095                     	;# 
   831     0096                     	;# 
   832     0097                     	;# 
   833     0098                     	;# 
   834     0099                     	;# 
   835     009A                     	;# 
   836     009B                     	;# 
   837     009B                     	;# 
   838     009C                     	;# 
   839     009D                     	;# 
   840     009E                     	;# 
   841     010C                     	;# 
   842     010D                     	;# 
   843     0111                     	;# 
   844     0112                     	;# 
   845     0113                     	;# 
   846     0114                     	;# 
   847     0115                     	;# 
   848     0116                     	;# 
   849     0117                     	;# 
   850     0118                     	;# 
   851     0119                     	;# 
   852     011A                     	;# 
   853     011B                     	;# 
   854     011D                     	;# 
   855     011E                     	;# 
   856     018C                     	;# 
   857     018D                     	;# 
   858     0191                     	;# 
   859     0191                     	;# 
   860     0192                     	;# 
   861     0193                     	;# 
   862     0193                     	;# 
   863     0193                     	;# 
   864     0194                     	;# 
   865     0195                     	;# 
   866     0196                     	;# 
   867     0199                     	;# 
   868     019A                     	;# 
   869     019B                     	;# 
   870     019B                     	;# 
   871     019B                     	;# 
   872     019B                     	;# 
   873     019C                     	;# 
   874     019C                     	;# 
   875     019D                     	;# 
   876     019E                     	;# 
   877     019F                     	;# 
   878     020C                     	;# 
   879     020D                     	;# 
   880     0211                     	;# 
   881     0211                     	;# 
   882     0212                     	;# 
   883     0212                     	;# 
   884     0213                     	;# 
   885     0213                     	;# 
   886     0214                     	;# 
   887     0214                     	;# 
   888     0215                     	;# 
   889     0215                     	;# 
   890     0215                     	;# 
   891     0216                     	;# 
   892     0216                     	;# 
   893     0217                     	;# 
   894     0217                     	;# 
   895     0291                     	;# 
   896     0291                     	;# 
   897     0292                     	;# 
   898     0293                     	;# 
   899     0294                     	;# 
   900     0295                     	;# 
   901     0295                     	;# 
   902     0296                     	;# 
   903     0394                     	;# 
   904     0395                     	;# 
   905     0396                     	;# 
   906     039A                     	;# 
   907     039C                     	;# 
   908     039D                     	;# 
   909     039E                     	;# 
   910     039F                     	;# 
   911     0FE4                     	;# 
   912     0FE5                     	;# 
   913     0FE6                     	;# 
   914     0FE7                     	;# 
   915     0FE8                     	;# 
   916     0FE9                     	;# 
   917     0FEA                     	;# 
   918     0FEB                     	;# 
   919     0FED                     	;# 
   920     0FEE                     	;# 
   921     0FEF                     	;# 
   922     0000                     	;# 
   923     0001                     	;# 
   924     0002                     	;# 
   925     0003                     	;# 
   926     0004                     	;# 
   927     0005                     	;# 
   928     0006                     	;# 
   929     0007                     	;# 
   930     0008                     	;# 
   931     0009                     	;# 
   932     000A                     	;# 
   933     000B                     	;# 
   934     000C                     	;# 
   935     000D                     	;# 
   936     0011                     	;# 
   937     0012                     	;# 
   938     0015                     	;# 
   939     0016                     	;# 
   940     0016                     	;# 
   941     0017                     	;# 
   942     0018                     	;# 
   943     0019                     	;# 
   944     001A                     	;# 
   945     001B                     	;# 
   946     001C                     	;# 
   947     001E                     	;# 
   948     001F                     	;# 
   949     008C                     	;# 
   950     008D                     	;# 
   951     0091                     	;# 
   952     0092                     	;# 
   953     0095                     	;# 
   954     0096                     	;# 
   955     0097                     	;# 
   956     0098                     	;# 
   957     0099                     	;# 
   958     009A                     	;# 
   959     009B                     	;# 
   960     009B                     	;# 
   961     009C                     	;# 
   962     009D                     	;# 
   963     009E                     	;# 
   964     010C                     	;# 
   965     010D                     	;# 
   966     0111                     	;# 
   967     0112                     	;# 
   968     0113                     	;# 
   969     0114                     	;# 
   970     0115                     	;# 
   971     0116                     	;# 
   972     0117                     	;# 
   973     0118                     	;# 
   974     0119                     	;# 
   975     011A                     	;# 
   976     011B                     	;# 
   977     011D                     	;# 
   978     011E                     	;# 
   979     018C                     	;# 
   980     018D                     	;# 
   981     0191                     	;# 
   982     0191                     	;# 
   983     0192                     	;# 
   984     0193                     	;# 
   985     0193                     	;# 
   986     0193                     	;# 
   987     0194                     	;# 
   988     0195                     	;# 
   989     0196                     	;# 
   990     0199                     	;# 
   991     019A                     	;# 
   992     019B                     	;# 
   993     019B                     	;# 
   994     019B                     	;# 
   995     019B                     	;# 
   996     019C                     	;# 
   997     019C                     	;# 
   998     019D                     	;# 
   999     019E                     	;# 
  1000     019F                     	;# 
  1001     020C                     	;# 
  1002     020D                     	;# 
  1003     0211                     	;# 
  1004     0211                     	;# 
  1005     0212                     	;# 
  1006     0212                     	;# 
  1007     0213                     	;# 
  1008     0213                     	;# 
  1009     0214                     	;# 
  1010     0214                     	;# 
  1011     0215                     	;# 
  1012     0215                     	;# 
  1013     0215                     	;# 
  1014     0216                     	;# 
  1015     0216                     	;# 
  1016     0217                     	;# 
  1017     0217                     	;# 
  1018     0291                     	;# 
  1019     0291                     	;# 
  1020     0292                     	;# 
  1021     0293                     	;# 
  1022     0294                     	;# 
  1023     0295                     	;# 
  1024     0295                     	;# 
  1025     0296                     	;# 
  1026     0394                     	;# 
  1027     0395                     	;# 
  1028     0396                     	;# 
  1029     039A                     	;# 
  1030     039C                     	;# 
  1031     039D                     	;# 
  1032     039E                     	;# 
  1033     039F                     	;# 
  1034     0FE4                     	;# 
  1035     0FE5                     	;# 
  1036     0FE6                     	;# 
  1037     0FE7                     	;# 
  1038     0FE8                     	;# 
  1039     0FE9                     	;# 
  1040     0FEA                     	;# 
  1041     0FEB                     	;# 
  1042     0FED                     	;# 
  1043     0FEE                     	;# 
  1044     0FEF                     	;# 
  1045     0000                     	;# 
  1046     0001                     	;# 
  1047     0002                     	;# 
  1048     0003                     	;# 
  1049     0004                     	;# 
  1050     0005                     	;# 
  1051     0006                     	;# 
  1052     0007                     	;# 
  1053     0008                     	;# 
  1054     0009                     	;# 
  1055     000A                     	;# 
  1056     000B                     	;# 
  1057     000C                     	;# 
  1058     000D                     	;# 
  1059     0011                     	;# 
  1060     0012                     	;# 
  1061     0015                     	;# 
  1062     0016                     	;# 
  1063     0016                     	;# 
  1064     0017                     	;# 
  1065     0018                     	;# 
  1066     0019                     	;# 
  1067     001A                     	;# 
  1068     001B                     	;# 
  1069     001C                     	;# 
  1070     001E                     	;# 
  1071     001F                     	;# 
  1072     008C                     	;# 
  1073     008D                     	;# 
  1074     0091                     	;# 
  1075     0092                     	;# 
  1076     0095                     	;# 
  1077     0096                     	;# 
  1078     0097                     	;# 
  1079     0098                     	;# 
  1080     0099                     	;# 
  1081     009A                     	;# 
  1082     009B                     	;# 
  1083     009B                     	;# 
  1084     009C                     	;# 
  1085     009D                     	;# 
  1086     009E                     	;# 
  1087     010C                     	;# 
  1088     010D                     	;# 
  1089     0111                     	;# 
  1090     0112                     	;# 
  1091     0113                     	;# 
  1092     0114                     	;# 
  1093     0115                     	;# 
  1094     0116                     	;# 
  1095     0117                     	;# 
  1096     0118                     	;# 
  1097     0119                     	;# 
  1098     011A                     	;# 
  1099     011B                     	;# 
  1100     011D                     	;# 
  1101     011E                     	;# 
  1102     018C                     	;# 
  1103     018D                     	;# 
  1104     0191                     	;# 
  1105     0191                     	;# 
  1106     0192                     	;# 
  1107     0193                     	;# 
  1108     0193                     	;# 
  1109     0193                     	;# 
  1110     0194                     	;# 
  1111     0195                     	;# 
  1112     0196                     	;# 
  1113     0199                     	;# 
  1114     019A                     	;# 
  1115     019B                     	;# 
  1116     019B                     	;# 
  1117     019B                     	;# 
  1118     019B                     	;# 
  1119     019C                     	;# 
  1120     019C                     	;# 
  1121     019D                     	;# 
  1122     019E                     	;# 
  1123     019F                     	;# 
  1124     020C                     	;# 
  1125     020D                     	;# 
  1126     0211                     	;# 
  1127     0211                     	;# 
  1128     0212                     	;# 
  1129     0212                     	;# 
  1130     0213                     	;# 
  1131     0213                     	;# 
  1132     0214                     	;# 
  1133     0214                     	;# 
  1134     0215                     	;# 
  1135     0215                     	;# 
  1136     0215                     	;# 
  1137     0216                     	;# 
  1138     0216                     	;# 
  1139     0217                     	;# 
  1140     0217                     	;# 
  1141     0291                     	;# 
  1142     0291                     	;# 
  1143     0292                     	;# 
  1144     0293                     	;# 
  1145     0294                     	;# 
  1146     0295                     	;# 
  1147     0295                     	;# 
  1148     0296                     	;# 
  1149     0394                     	;# 
  1150     0395                     	;# 
  1151     0396                     	;# 
  1152     039A                     	;# 
  1153     039C                     	;# 
  1154     039D                     	;# 
  1155     039E                     	;# 
  1156     039F                     	;# 
  1157     0FE4                     	;# 
  1158     0FE5                     	;# 
  1159     0FE6                     	;# 
  1160     0FE7                     	;# 
  1161     0FE8                     	;# 
  1162     0FE9                     	;# 
  1163     0FEA                     	;# 
  1164     0FEB                     	;# 
  1165     0FED                     	;# 
  1166     0FEE                     	;# 
  1167     0FEF                     	;# 
  1168     0000                     	;# 
  1169     0001                     	;# 
  1170     0002                     	;# 
  1171     0003                     	;# 
  1172     0004                     	;# 
  1173     0005                     	;# 
  1174     0006                     	;# 
  1175     0007                     	;# 
  1176     0008                     	;# 
  1177     0009                     	;# 
  1178     000A                     	;# 
  1179     000B                     	;# 
  1180     000C                     	;# 
  1181     000D                     	;# 
  1182     0011                     	;# 
  1183     0012                     	;# 
  1184     0015                     	;# 
  1185     0016                     	;# 
  1186     0016                     	;# 
  1187     0017                     	;# 
  1188     0018                     	;# 
  1189     0019                     	;# 
  1190     001A                     	;# 
  1191     001B                     	;# 
  1192     001C                     	;# 
  1193     001E                     	;# 
  1194     001F                     	;# 
  1195     008C                     	;# 
  1196     008D                     	;# 
  1197     0091                     	;# 
  1198     0092                     	;# 
  1199     0095                     	;# 
  1200     0096                     	;# 
  1201     0097                     	;# 
  1202     0098                     	;# 
  1203     0099                     	;# 
  1204     009A                     	;# 
  1205     009B                     	;# 
  1206     009B                     	;# 
  1207     009C                     	;# 
  1208     009D                     	;# 
  1209     009E                     	;# 
  1210     010C                     	;# 
  1211     010D                     	;# 
  1212     0111                     	;# 
  1213     0112                     	;# 
  1214     0113                     	;# 
  1215     0114                     	;# 
  1216     0115                     	;# 
  1217     0116                     	;# 
  1218     0117                     	;# 
  1219     0118                     	;# 
  1220     0119                     	;# 
  1221     011A                     	;# 
  1222     011B                     	;# 
  1223     011D                     	;# 
  1224     011E                     	;# 
  1225     018C                     	;# 
  1226     018D                     	;# 
  1227     0191                     	;# 
  1228     0191                     	;# 
  1229     0192                     	;# 
  1230     0193                     	;# 
  1231     0193                     	;# 
  1232     0193                     	;# 
  1233     0194                     	;# 
  1234     0195                     	;# 
  1235     0196                     	;# 
  1236     0199                     	;# 
  1237     019A                     	;# 
  1238     019B                     	;# 
  1239     019B                     	;# 
  1240     019B                     	;# 
  1241     019B                     	;# 
  1242     019C                     	;# 
  1243     019C                     	;# 
  1244     019D                     	;# 
  1245     019E                     	;# 
  1246     019F                     	;# 
  1247     020C                     	;# 
  1248     020D                     	;# 
  1249     0211                     	;# 
  1250     0211                     	;# 
  1251     0212                     	;# 
  1252     0212                     	;# 
  1253     0213                     	;# 
  1254     0213                     	;# 
  1255     0214                     	;# 
  1256     0214                     	;# 
  1257     0215                     	;# 
  1258     0215                     	;# 
  1259     0215                     	;# 
  1260     0216                     	;# 
  1261     0216                     	;# 
  1262     0217                     	;# 
  1263     0217                     	;# 
  1264     0291                     	;# 
  1265     0291                     	;# 
  1266     0292                     	;# 
  1267     0293                     	;# 
  1268     0294                     	;# 
  1269     0295                     	;# 
  1270     0295                     	;# 
  1271     0296                     	;# 
  1272     0394                     	;# 
  1273     0395                     	;# 
  1274     0396                     	;# 
  1275     039A                     	;# 
  1276     039C                     	;# 
  1277     039D                     	;# 
  1278     039E                     	;# 
  1279     039F                     	;# 
  1280     0FE4                     	;# 
  1281     0FE5                     	;# 
  1282     0FE6                     	;# 
  1283     0FE7                     	;# 
  1284     0FE8                     	;# 
  1285     0FE9                     	;# 
  1286     0FEA                     	;# 
  1287     0FEB                     	;# 
  1288     0FED                     	;# 
  1289     0FEE                     	;# 
  1290     0FEF                     	;# 
  1291     0000                     	;# 
  1292     0001                     	;# 
  1293     0002                     	;# 
  1294     0003                     	;# 
  1295     0004                     	;# 
  1296     0005                     	;# 
  1297     0006                     	;# 
  1298     0007                     	;# 
  1299     0008                     	;# 
  1300     0009                     	;# 
  1301     000A                     	;# 
  1302     000B                     	;# 
  1303     000C                     	;# 
  1304     000D                     	;# 
  1305     0011                     	;# 
  1306     0012                     	;# 
  1307     0015                     	;# 
  1308     0016                     	;# 
  1309     0016                     	;# 
  1310     0017                     	;# 
  1311     0018                     	;# 
  1312     0019                     	;# 
  1313     001A                     	;# 
  1314     001B                     	;# 
  1315     001C                     	;# 
  1316     001E                     	;# 
  1317     001F                     	;# 
  1318     008C                     	;# 
  1319     008D                     	;# 
  1320     0091                     	;# 
  1321     0092                     	;# 
  1322     0095                     	;# 
  1323     0096                     	;# 
  1324     0097                     	;# 
  1325     0098                     	;# 
  1326     0099                     	;# 
  1327     009A                     	;# 
  1328     009B                     	;# 
  1329     009B                     	;# 
  1330     009C                     	;# 
  1331     009D                     	;# 
  1332     009E                     	;# 
  1333     010C                     	;# 
  1334     010D                     	;# 
  1335     0111                     	;# 
  1336     0112                     	;# 
  1337     0113                     	;# 
  1338     0114                     	;# 
  1339     0115                     	;# 
  1340     0116                     	;# 
  1341     0117                     	;# 
  1342     0118                     	;# 
  1343     0119                     	;# 
  1344     011A                     	;# 
  1345     011B                     	;# 
  1346     011D                     	;# 
  1347     011E                     	;# 
  1348     018C                     	;# 
  1349     018D                     	;# 
  1350     0191                     	;# 
  1351     0191                     	;# 
  1352     0192                     	;# 
  1353     0193                     	;# 
  1354     0193                     	;# 
  1355     0193                     	;# 
  1356     0194                     	;# 
  1357     0195                     	;# 
  1358     0196                     	;# 
  1359     0199                     	;# 
  1360     019A                     	;# 
  1361     019B                     	;# 
  1362     019B                     	;# 
  1363     019B                     	;# 
  1364     019B                     	;# 
  1365     019C                     	;# 
  1366     019C                     	;# 
  1367     019D                     	;# 
  1368     019E                     	;# 
  1369     019F                     	;# 
  1370     020C                     	;# 
  1371     020D                     	;# 
  1372     0211                     	;# 
  1373     0211                     	;# 
  1374     0212                     	;# 
  1375     0212                     	;# 
  1376     0213                     	;# 
  1377     0213                     	;# 
  1378     0214                     	;# 
  1379     0214                     	;# 
  1380     0215                     	;# 
  1381     0215                     	;# 
  1382     0215                     	;# 
  1383     0216                     	;# 
  1384     0216                     	;# 
  1385     0217                     	;# 
  1386     0217                     	;# 
  1387     0291                     	;# 
  1388     0291                     	;# 
  1389     0292                     	;# 
  1390     0293                     	;# 
  1391     0294                     	;# 
  1392     0295                     	;# 
  1393     0295                     	;# 
  1394     0296                     	;# 
  1395     0394                     	;# 
  1396     0395                     	;# 
  1397     0396                     	;# 
  1398     039A                     	;# 
  1399     039C                     	;# 
  1400     039D                     	;# 
  1401     039E                     	;# 
  1402     039F                     	;# 
  1403     0FE4                     	;# 
  1404     0FE5                     	;# 
  1405     0FE6                     	;# 
  1406     0FE7                     	;# 
  1407     0FE8                     	;# 
  1408     0FE9                     	;# 
  1409     0FEA                     	;# 
  1410     0FEB                     	;# 
  1411     0FED                     	;# 
  1412     0FEE                     	;# 
  1413     0FEF                     	;# 
  1414     0000                     	;# 
  1415     0001                     	;# 
  1416     0002                     	;# 
  1417     0003                     	;# 
  1418     0004                     	;# 
  1419     0005                     	;# 
  1420     0006                     	;# 
  1421     0007                     	;# 
  1422     0008                     	;# 
  1423     0009                     	;# 
  1424     000A                     	;# 
  1425     000B                     	;# 
  1426     000C                     	;# 
  1427     000D                     	;# 
  1428     0011                     	;# 
  1429     0012                     	;# 
  1430     0015                     	;# 
  1431     0016                     	;# 
  1432     0016                     	;# 
  1433     0017                     	;# 
  1434     0018                     	;# 
  1435     0019                     	;# 
  1436     001A                     	;# 
  1437     001B                     	;# 
  1438     001C                     	;# 
  1439     001E                     	;# 
  1440     001F                     	;# 
  1441     008C                     	;# 
  1442     008D                     	;# 
  1443     0091                     	;# 
  1444     0092                     	;# 
  1445     0095                     	;# 
  1446     0096                     	;# 
  1447     0097                     	;# 
  1448     0098                     	;# 
  1449     0099                     	;# 
  1450     009A                     	;# 
  1451     009B                     	;# 
  1452     009B                     	;# 
  1453     009C                     	;# 
  1454     009D                     	;# 
  1455     009E                     	;# 
  1456     010C                     	;# 
  1457     010D                     	;# 
  1458     0111                     	;# 
  1459     0112                     	;# 
  1460     0113                     	;# 
  1461     0114                     	;# 
  1462     0115                     	;# 
  1463     0116                     	;# 
  1464     0117                     	;# 
  1465     0118                     	;# 
  1466     0119                     	;# 
  1467     011A                     	;# 
  1468     011B                     	;# 
  1469     011D                     	;# 
  1470     011E                     	;# 
  1471     018C                     	;# 
  1472     018D                     	;# 
  1473     0191                     	;# 
  1474     0191                     	;# 
  1475     0192                     	;# 
  1476     0193                     	;# 
  1477     0193                     	;# 
  1478     0193                     	;# 
  1479     0194                     	;# 
  1480     0195                     	;# 
  1481     0196                     	;# 
  1482     0199                     	;# 
  1483     019A                     	;# 
  1484     019B                     	;# 
  1485     019B                     	;# 
  1486     019B                     	;# 
  1487     019B                     	;# 
  1488     019C                     	;# 
  1489     019C                     	;# 
  1490     019D                     	;# 
  1491     019E                     	;# 
  1492     019F                     	;# 
  1493     020C                     	;# 
  1494     020D                     	;# 
  1495     0211                     	;# 
  1496     0211                     	;# 
  1497     0212                     	;# 
  1498     0212                     	;# 
  1499     0213                     	;# 
  1500     0213                     	;# 
  1501     0214                     	;# 
  1502     0214                     	;# 
  1503     0215                     	;# 
  1504     0215                     	;# 
  1505     0215                     	;# 
  1506     0216                     	;# 
  1507     0216                     	;# 
  1508     0217                     	;# 
  1509     0217                     	;# 
  1510     0291                     	;# 
  1511     0291                     	;# 
  1512     0292                     	;# 
  1513     0293                     	;# 
  1514     0294                     	;# 
  1515     0295                     	;# 
  1516     0295                     	;# 
  1517     0296                     	;# 
  1518     0394                     	;# 
  1519     0395                     	;# 
  1520     0396                     	;# 
  1521     039A                     	;# 
  1522     039C                     	;# 
  1523     039D                     	;# 
  1524     039E                     	;# 
  1525     039F                     	;# 
  1526     0FE4                     	;# 
  1527     0FE5                     	;# 
  1528     0FE6                     	;# 
  1529     0FE7                     	;# 
  1530     0FE8                     	;# 
  1531     0FE9                     	;# 
  1532     0FEA                     	;# 
  1533     0FEB                     	;# 
  1534     0FED                     	;# 
  1535     0FEE                     	;# 
  1536     0FEF                     	;# 
  1537     0000                     	;# 
  1538     0001                     	;# 
  1539     0002                     	;# 
  1540     0003                     	;# 
  1541     0004                     	;# 
  1542     0005                     	;# 
  1543     0006                     	;# 
  1544     0007                     	;# 
  1545     0008                     	;# 
  1546     0009                     	;# 
  1547     000A                     	;# 
  1548     000B                     	;# 
  1549     000C                     	;# 
  1550     000D                     	;# 
  1551     0011                     	;# 
  1552     0012                     	;# 
  1553     0015                     	;# 
  1554     0016                     	;# 
  1555     0016                     	;# 
  1556     0017                     	;# 
  1557     0018                     	;# 
  1558     0019                     	;# 
  1559     001A                     	;# 
  1560     001B                     	;# 
  1561     001C                     	;# 
  1562     001E                     	;# 
  1563     001F                     	;# 
  1564     008C                     	;# 
  1565     008D                     	;# 
  1566     0091                     	;# 
  1567     0092                     	;# 
  1568     0095                     	;# 
  1569     0096                     	;# 
  1570     0097                     	;# 
  1571     0098                     	;# 
  1572     0099                     	;# 
  1573     009A                     	;# 
  1574     009B                     	;# 
  1575     009B                     	;# 
  1576     009C                     	;# 
  1577     009D                     	;# 
  1578     009E                     	;# 
  1579     010C                     	;# 
  1580     010D                     	;# 
  1581     0111                     	;# 
  1582     0112                     	;# 
  1583     0113                     	;# 
  1584     0114                     	;# 
  1585     0115                     	;# 
  1586     0116                     	;# 
  1587     0117                     	;# 
  1588     0118                     	;# 
  1589     0119                     	;# 
  1590     011A                     	;# 
  1591     011B                     	;# 
  1592     011D                     	;# 
  1593     011E                     	;# 
  1594     018C                     	;# 
  1595     018D                     	;# 
  1596     0191                     	;# 
  1597     0191                     	;# 
  1598     0192                     	;# 
  1599     0193                     	;# 
  1600     0193                     	;# 
  1601     0193                     	;# 
  1602     0194                     	;# 
  1603     0195                     	;# 
  1604     0196                     	;# 
  1605     0199                     	;# 
  1606     019A                     	;# 
  1607     019B                     	;# 
  1608     019B                     	;# 
  1609     019B                     	;# 
  1610     019B                     	;# 
  1611     019C                     	;# 
  1612     019C                     	;# 
  1613     019D                     	;# 
  1614     019E                     	;# 
  1615     019F                     	;# 
  1616     020C                     	;# 
  1617     020D                     	;# 
  1618     0211                     	;# 
  1619     0211                     	;# 
  1620     0212                     	;# 
  1621     0212                     	;# 
  1622     0213                     	;# 
  1623     0213                     	;# 
  1624     0214                     	;# 
  1625     0214                     	;# 
  1626     0215                     	;# 
  1627     0215                     	;# 
  1628     0215                     	;# 
  1629     0216                     	;# 
  1630     0216                     	;# 
  1631     0217                     	;# 
  1632     0217                     	;# 
  1633     0291                     	;# 
  1634     0291                     	;# 
  1635     0292                     	;# 
  1636     0293                     	;# 
  1637     0294                     	;# 
  1638     0295                     	;# 
  1639     0295                     	;# 
  1640     0296                     	;# 
  1641     0394                     	;# 
  1642     0395                     	;# 
  1643     0396                     	;# 
  1644     039A                     	;# 
  1645     039C                     	;# 
  1646     039D                     	;# 
  1647     039E                     	;# 
  1648     039F                     	;# 
  1649     0FE4                     	;# 
  1650     0FE5                     	;# 
  1651     0FE6                     	;# 
  1652     0FE7                     	;# 
  1653     0FE8                     	;# 
  1654     0FE9                     	;# 
  1655     0FEA                     	;# 
  1656     0FEB                     	;# 
  1657     0FED                     	;# 
  1658     0FEE                     	;# 
  1659     0FEF                     	;# 
  1660                           
  1661                           	psect	idataBANK0
  1662     02A2                     __pidataBANK0:
  1663                           
  1664                           ;initializer for _command
  1665     02A2  3440               	retlw	64
  1666                           
  1667                           ;initializer for _MENU_f_first_entrance
  1668     02A3  3401               	retlw	1
  1669     0018                     _T1CONbits	set	24
  1670     001C                     _T2CONbits	set	28
  1671     001C                     _T2CON	set	28
  1672     0011                     _PIR1bits	set	17
  1673     000B                     _INTCONbits	set	11
  1674     0018                     _T1CON	set	24
  1675     0016                     _TMR1L	set	22
  1676     0017                     _TMR1H	set	23
  1677     008C                     _TRISAbits	set	140
  1678     008D                     _TRISBbits	set	141
  1679     0091                     _PIE1bits	set	145
  1680     009C                     _ADRESH	set	156
  1681     009D                     _ADCON0bits	set	157
  1682     009E                     _ADCON1	set	158
  1683     009D                     _ADCON0	set	157
  1684     010D                     _LATBbits	set	269
  1685     010C                     _LATAbits	set	268
  1686     019D                     _RCSTAbits	set	413
  1687     019A                     _TXREG	set	410
  1688     019E                     _TXSTAbits	set	414
  1689     0199                     _RCREG	set	409
  1690     019B                     _SPBRG	set	411
  1691     019F                     _BAUDCONbits	set	415
  1692     019D                     _RCSTA	set	413
  1693     019E                     _TXSTA	set	414
  1694     018D                     _ANSELBbits	set	397
  1695                           
  1696                           	psect	cinit
  1697     00B0                     start_initialization:	
  1698                           ; #config settings
  1699                           
  1700     00B0                     __initialization:
  1701                           
  1702                           ; Initialize objects allocated to BANK0
  1703     00B0  3182  22A2  3180   	fcall	__pidataBANK0	;fetch initializer
  1704     00B3  00B8               	movwf	__pdataBANK0& (0+127)
  1705     00B4  3182  22A3  3180   	fcall	__pidataBANK0+1	;fetch initializer
  1706     00B7  00B9               	movwf	(__pdataBANK0+1)& (0+127)
  1707                           
  1708                           ; Clear objects allocated to COMMON
  1709     00B8  01F9               	clrf	__pbssCOMMON& (0+127)
  1710     00B9  01FA               	clrf	(__pbssCOMMON+1)& (0+127)
  1711     00BA  01FB               	clrf	(__pbssCOMMON+2)& (0+127)
  1712     00BB  01FC               	clrf	(__pbssCOMMON+3)& (0+127)
  1713     00BC  01FD               	clrf	(__pbssCOMMON+4)& (0+127)
  1714                           
  1715                           ; Clear objects allocated to BANK0
  1716     00BD  01A0               	clrf	__pbssBANK0& (0+127)
  1717     00BE  01A1               	clrf	(__pbssBANK0+1)& (0+127)
  1718     00BF  01A2               	clrf	(__pbssBANK0+2)& (0+127)
  1719     00C0  01A3               	clrf	(__pbssBANK0+3)& (0+127)
  1720     00C1  01A4               	clrf	(__pbssBANK0+4)& (0+127)
  1721     00C2  01A5               	clrf	(__pbssBANK0+5)& (0+127)
  1722     00C3  01A6               	clrf	(__pbssBANK0+6)& (0+127)
  1723     00C4  01A7               	clrf	(__pbssBANK0+7)& (0+127)
  1724     00C5  01A8               	clrf	(__pbssBANK0+8)& (0+127)
  1725     00C6  01A9               	clrf	(__pbssBANK0+9)& (0+127)
  1726     00C7  01AA               	clrf	(__pbssBANK0+10)& (0+127)
  1727     00C8  01AB               	clrf	(__pbssBANK0+11)& (0+127)
  1728     00C9                     end_of_initialization:	
  1729                           ;End of C runtime variable initialization code
  1730                           
  1731     00C9                     __end_of__initialization:
  1732     00C9  107E               	bcf	int$flags,0	;clear compiler interrupt flag (level 1)
  1733     00CA  0020               	movlb	0
  1734     00CB  28CC               	ljmp	_main	;jump to C main() function
  1735                           
  1736                           	psect	bssCOMMON
  1737     0079                     __pbssCOMMON:
  1738     0079                     _f_blink_green:
  1739     0079                     	ds	1
  1740     007A                     _f_blink_orange:
  1741     007A                     	ds	1
  1742     007B                     _f_blink_red:
  1743     007B                     	ds	1
  1744     007C                     _UART_receive_pointer:
  1745     007C                     	ds	1
  1746     007D                     _TMR1_counter:
  1747     007D                     	ds	1
  1748                           
  1749                           	psect	bssBANK0
  1750     0020                     __pbssBANK0:
  1751     0020                     _UART_receive_buffer:
  1752     0020                     	ds	4
  1753     0024                     _address:
  1754     0024                     	ds	2
  1755     0026                     _data:
  1756     0026                     	ds	2
  1757     0028                     _f_receive_problem:
  1758     0028                     	ds	1
  1759     0029                     _f_packet_complete:
  1760     0029                     	ds	1
  1761     002A                     _MENU_programmer_mode:
  1762     002A                     	ds	1
  1763     002B                     _TMR2_counter:
  1764     002B                     	ds	1
  1765                           
  1766                           	psect	dataBANK0
  1767     0038                     __pdataBANK0:
  1768     0038                     _command:
  1769     0038                     	ds	1
  1770     0039                     _MENU_f_first_entrance:
  1771     0039                     	ds	1
  1772                           
  1773                           	psect	cstackCOMMON
  1774     0070                     __pcstackCOMMON:
  1775     0070                     ?_programmer_init:
  1776     0070                     ?_check_cks:	
  1777                           ; 1 bytes @ 0x0
  1778                           
  1779     0070                     ??_check_cks:	
  1780                           ; 1 bytes @ 0x0
  1781                           
  1782     0070                     ?_ADC_init:	
  1783                           ; 1 bytes @ 0x0
  1784                           
  1785     0070                     ?_TMR1_init:	
  1786                           ; 1 bytes @ 0x0
  1787                           
  1788     0070                     ?_TMR2_init:	
  1789                           ; 1 bytes @ 0x0
  1790                           
  1791     0070                     ?_UART_init:	
  1792                           ; 1 bytes @ 0x0
  1793                           
  1794     0070                     ?_UART_send:	
  1795                           ; 1 bytes @ 0x0
  1796                           
  1797     0070                     ?_UART_receive_error_check:	
  1798                           ; 1 bytes @ 0x0
  1799                           
  1800     0070                     ??_UART_receive_error_check:	
  1801                           ; 1 bytes @ 0x0
  1802                           
  1803     0070                     ?_main:	
  1804                           ; 1 bytes @ 0x0
  1805                           
  1806     0070                     ?_ISR:	
  1807                           ; 1 bytes @ 0x0
  1808                           
  1809                           
  1810                           ; 1 bytes @ 0x0
  1811     0070                     	ds	4
  1812     0074                     check_cks@result:
  1813                           
  1814                           ; 2 bytes @ 0x4
  1815     0074                     	ds	2
  1816     0076                     check_cks@i:
  1817                           
  1818                           ; 1 bytes @ 0x6
  1819     0076                     	ds	1
  1820     0077                     ??_ISR:
  1821                           
  1822                           ; 1 bytes @ 0x7
  1823     0077                     	ds	2
  1824                           
  1825                           	psect	cstackBANK0
  1826     002C                     __pcstackBANK0:
  1827     002C                     ??_programmer_init:
  1828     002C                     ??_ADC_init:	
  1829                           ; 1 bytes @ 0x0
  1830                           
  1831     002C                     ?_SR_write40:	
  1832                           ; 1 bytes @ 0x0
  1833                           
  1834     002C                     ??_TMR1_init:	
  1835                           ; 1 bytes @ 0x0
  1836                           
  1837     002C                     ??_TMR2_init:	
  1838                           ; 1 bytes @ 0x0
  1839                           
  1840     002C                     ??_UART_init:	
  1841                           ; 1 bytes @ 0x0
  1842                           
  1843     002C                     ??_UART_send:	
  1844                           ; 1 bytes @ 0x0
  1845                           
  1846     002C                     UART_send@data:	
  1847                           ; 1 bytes @ 0x0
  1848                           
  1849     002C                     SR_write40@data:	
  1850                           ; 1 bytes @ 0x0
  1851                           
  1852                           
  1853                           ; 2 bytes @ 0x0
  1854     002C                     	ds	2
  1855     002E                     SR_write40@address:
  1856                           
  1857                           ; 2 bytes @ 0x2
  1858     002E                     	ds	2
  1859     0030                     ??_SR_write40:
  1860                           
  1861                           ; 1 bytes @ 0x4
  1862     0030                     	ds	2
  1863     0032                     SR_write40@command:
  1864                           
  1865                           ; 1 bytes @ 0x6
  1866     0032                     	ds	1
  1867     0033                     SR_write40@i:
  1868                           
  1869                           ; 1 bytes @ 0x7
  1870     0033                     	ds	1
  1871     0034                     SR_write40@i_133:
  1872                           
  1873                           ; 1 bytes @ 0x8
  1874     0034                     	ds	1
  1875     0035                     SR_write40@i_134:
  1876                           
  1877                           ; 1 bytes @ 0x9
  1878     0035                     	ds	1
  1879     0036                     ??_main:
  1880                           
  1881                           ; 1 bytes @ 0xA
  1882     0036                     	ds	2
  1883                           
  1884                           	psect	maintext
  1885     00CC                     __pmaintext:	
  1886 ;;
  1887 ;;Main: autosize = 0, tempsize = 2, incstack = 0, save=0
  1888 ;;
  1889 ;; *************** function _main *****************
  1890 ;; Defined at:
  1891 ;;		line 28 in file "main.c"
  1892 ;; Parameters:    Size  Location     Type
  1893 ;;		None
  1894 ;; Auto vars:     Size  Location     Type
  1895 ;;		None
  1896 ;; Return value:  Size  Location     Type
  1897 ;;                  1    wreg      void 
  1898 ;; Registers used:
  1899 ;;		wreg, fsr0l, fsr0h, status,2, status,0, pclath, cstack
  1900 ;; Tracked objects:
  1901 ;;		On entry : B1F/0
  1902 ;;		On exit  : 0/0
  1903 ;;		Unchanged: 0/0
  1904 ;; Data sizes:     COMMON   BANK0   BANK1   BANK2
  1905 ;;      Params:         0       0       0       0
  1906 ;;      Locals:         0       0       0       0
  1907 ;;      Temps:          0       2       0       0
  1908 ;;      Totals:         0       2       0       0
  1909 ;;Total ram usage:        2 bytes
  1910 ;; Hardware stack levels required when called: 4
  1911 ;; This function calls:
  1912 ;;		_SR_write40
  1913 ;;		_UART_send
  1914 ;;		_programmer_init
  1915 ;; This function is called by:
  1916 ;;		Startup code after reset
  1917 ;; This function uses a non-reentrant model
  1918 ;;
  1919                           
  1920     00CC                     _main:	
  1921                           ;psect for function _main
  1922                           
  1923     00CC                     l1494:	
  1924                           ;incstack = 0
  1925                           ; Regs used in _main: [wreg-fsr0h+status,2+status,0+pclath+cstack]
  1926                           
  1927                           
  1928                           ;main.c: 31:             MENU_programmer_mode = 0;
  1929     00CC  3182  2232  3180   	fcall	_programmer_init
  1930     00CF                     l1496:
  1931                           
  1932                           ;main.c: 32:             MENU_f_first_entrance = 1;
  1933     00CF  178B               	bsf	11,7	;volatile
  1934     00D0                     l1498:
  1935                           
  1936                           ;main.c: 40:         switch(MENU_programmer_mode){
  1937     00D0  0020               	movlb	0	; select bank0
  1938     00D1  0328               	decf	_f_receive_problem,w	;volatile
  1939     00D2  1D03               	btfss	3,2
  1940     00D3  28D5               	goto	u441
  1941     00D4  28D6               	goto	u440
  1942     00D5                     u441:
  1943     00D5  298A               	goto	l1598
  1944     00D6                     u440:
  1945     00D6                     l1500:
  1946                           
  1947                           ;main.c: 41: 
  1948     00D6  01A8               	clrf	_f_receive_problem	;volatile
  1949                           
  1950                           ;main.c: 42:             case 0:
  1951     00D7  01AA               	clrf	_MENU_programmer_mode	;volatile
  1952     00D8                     l1502:
  1953                           
  1954                           ;main.c: 43:                 if(MENU_f_first_entrance == 1){
  1955     00D8  3001               	movlw	1
  1956     00D9  00B9               	movwf	_MENU_f_first_entrance	;volatile
  1957     00DA                     l1504:
  1958                           
  1959                           ;main.c: 44:                     MENU_f_first_entrance = 0;
  1960     00DA  3004               	movlw	4
  1961     00DB  0020               	movlb	0	; select bank0
  1962     00DC  00B7               	movwf	??_main+1
  1963     00DD  300C               	movlw	12
  1964     00DE  00B6               	movwf	??_main
  1965     00DF  3033               	movlw	51
  1966     00E0                     u677:
  1967     00E0  0B89               	decfsz	9,f
  1968     00E1  28E0               	goto	u677
  1969     00E2  0BB6               	decfsz	??_main,f
  1970     00E3  28E0               	goto	u677
  1971     00E4  0BB7               	decfsz	??_main+1,f
  1972     00E5  28E0               	goto	u677
  1973     00E6  3200               	nop2
  1974     00E7                     l1506:
  1975                           
  1976                           ;main.c: 45:                     {LATAbits.LATA2 = 0;};
  1977     00E7  0023               	movlb	3	; select bank3
  1978     00E8  0819               	movf	25,w	;volatile
  1979     00E9                     l1508:
  1980     00E9  0819               	movf	25,w	;volatile
  1981     00EA                     l1510:
  1982     00EA  161D               	bsf	29,4	;volatile
  1983     00EB  298A               	goto	l1598
  1984     00EC                     l1512:
  1985                           
  1986                           ;main.c: 54: 
  1987     00EC  0339               	decf	_MENU_f_first_entrance,w	;volatile
  1988     00ED  1D03               	btfss	3,2
  1989     00EE  28F0               	goto	u451
  1990     00EF  28F1               	goto	u450
  1991     00F0                     u451:
  1992     00F0  2908               	goto	l1532
  1993     00F1                     u450:
  1994     00F1                     l1514:
  1995                           
  1996                           ;main.c: 55:                 if(f_packet_complete == 1){
  1997     00F1  01B9               	clrf	_MENU_f_first_entrance	;volatile
  1998     00F2                     l1516:
  1999                           
  2000                           ;main.c: 56:                     f_packet_complete = 0;
  2001     00F2  0022               	movlb	2	; select bank2
  2002     00F3  110C               	bcf	12,2	;volatile
  2003     00F4                     l1518:
  2004                           
  2005                           ;main.c: 57: 
  2006     00F4  3000               	movlw	0
  2007     00F5  0020               	movlb	0	; select bank0
  2008     00F6  00AC               	movwf	SR_write40@data
  2009     00F7  00AD               	movwf	SR_write40@data+1
  2010     00F8  3000               	movlw	0
  2011     00F9  00AE               	movwf	SR_write40@address
  2012     00FA  00AF               	movwf	SR_write40@address+1
  2013     00FB  3040               	movlw	64
  2014     00FC  3181  219D  3180   	fcall	_SR_write40
  2015     00FF                     l1520:
  2016                           
  2017                           ;main.c: 58:                     { RCREG; RCREG; RCSTAbits.CREN = 1; };
  2018     00FF  0022               	movlb	2	; select bank2
  2019     0100  120D               	bcf	13,4	;volatile
  2020     0101                     l1522:
  2021                           
  2022                           ;main.c: 59:                     switch(UART_receive_buffer[0]){
  2023     0101  128D               	bcf	13,5	;volatile
  2024     0102                     l1524:
  2025                           
  2026                           ;main.c: 60:                         case 0x01:
  2027     0102  3001               	movlw	1
  2028     0103  00FB               	movwf	_f_blink_red	;volatile
  2029     0104                     l1526:
  2030                           
  2031                           ;main.c: 61:                             UART_send(0xFF);
  2032     0104  01FA               	clrf	_f_blink_orange	;volatile
  2033     0105                     l1528:
  2034                           
  2035                           ;main.c: 62:                             MENU_programmer_mode = 1;
  2036     0105  01F9               	clrf	_f_blink_green	;volatile
  2037     0106                     l1530:
  2038                           
  2039                           ;main.c: 63:                             MENU_f_first_entrance = 1;
  2040     0106  0020               	movlb	0	; select bank0
  2041     0107  151C               	bsf	28,2	;volatile
  2042     0108                     l1532:
  2043                           
  2044                           ;main.c: 66:                             UART_send(0xFF);
  2045     0108  0329               	decf	_f_packet_complete,w	;volatile
  2046     0109  1D03               	btfss	3,2
  2047     010A  290C               	goto	u461
  2048     010B  290D               	goto	u460
  2049     010C                     u461:
  2050     010C  28D0               	goto	l1498
  2051     010D                     u460:
  2052     010D                     l1534:
  2053                           
  2054                           ;main.c: 67:                             break;
  2055     010D  01A9               	clrf	_f_packet_complete	;volatile
  2056     010E                     l1536:
  2057                           
  2058                           ;main.c: 69:                             break;
  2059     010E  0023               	movlb	3	; select bank3
  2060     010F  0819               	movf	25,w	;volatile
  2061     0110                     l1538:
  2062     0110  0819               	movf	25,w	;volatile
  2063     0111                     l1540:
  2064     0111  161D               	bsf	29,4	;volatile
  2065                           
  2066                           ;main.c: 70:                         case 0x05:
  2067     0112  292C               	goto	l1554
  2068     0113                     l1542:
  2069                           
  2070                           ;main.c: 72:                             break;
  2071     0113  30FF               	movlw	255
  2072     0114  3182  227E  3180   	fcall	_UART_send
  2073     0117                     l1544:
  2074                           
  2075                           ;main.c: 73:                         default:
  2076     0117  3001               	movlw	1
  2077     0118  0020               	movlb	0	; select bank0
  2078     0119  00AA               	movwf	_MENU_programmer_mode	;volatile
  2079     011A                     l1546:
  2080                           
  2081                           ;main.c: 74:                             UART_send(0x00);
  2082     011A  3001               	movlw	1
  2083     011B  00B9               	movwf	_MENU_f_first_entrance	;volatile
  2084                           
  2085                           ;main.c: 75:                     }
  2086     011C  28D0               	goto	l1498
  2087     011D                     l1548:
  2088                           
  2089                           ;main.c: 77:                 break;
  2090     011D  30FF               	movlw	255
  2091     011E  3182  227E  3180   	fcall	_UART_send
  2092                           
  2093                           ;main.c: 78: 
  2094     0121  28D0               	goto	l1498
  2095     0122                     l1550:
  2096                           
  2097                           ;main.c: 82:                     { LATBbits.LATB3 = 0; LATBbits.LATB4 = 0; LATBbits.LATB
      +                          5 = 0; T2CONbits.TMR2ON = 0; };
  2098     0122  30CC               	movlw	204
  2099     0123  3182  227E  3180   	fcall	_UART_send
  2100                           
  2101                           ;main.c: 83:                     LATBbits.LATB3 = 0;
  2102     0126  28D0               	goto	l1498
  2103     0127                     l1552:
  2104                           
  2105                           ;main.c: 85:                     LATBbits.LATB5 = 1;
  2106     0127  3000               	movlw	0
  2107     0128  3182  227E  3180   	fcall	_UART_send
  2108                           
  2109                           ;main.c: 86:                 }
  2110     012B  28D0               	goto	l1498
  2111     012C                     l1554:
  2112     012C  0020               	movlb	0	; select bank0
  2113     012D  0820               	movf	_UART_receive_buffer,w	;volatile
  2114     012E  00B6               	movwf	??_main
  2115     012F  01B7               	clrf	??_main+1
  2116                           
  2117                           ; Switch on 2 bytes has been partitioned into a top level switch of size 1, and 1 sub-sw
      +                          itches
  2118                           ; Switch size 1, requested type "simple"
  2119                           ; Number of cases is 1, Range of values is 0 to 0
  2120                           ; switch strategies available:
  2121                           ; Name         Instructions Cycles
  2122                           ; simple_byte            4     3 (average)
  2123                           ; direct_byte            8     6 (fixed)
  2124                           ; jumptable            260     6 (fixed)
  2125                           ;	Chosen strategy is simple_byte
  2126     0130  0837               	movf	??_main+1,w
  2127     0131  3A00               	xorlw	0	; case 0
  2128     0132  1903               	skipnz
  2129     0133  2935               	goto	l1742
  2130     0134  2927               	goto	l1552
  2131     0135                     l1742:
  2132                           
  2133                           ; Switch size 1, requested type "simple"
  2134                           ; Number of cases is 4, Range of values is 1 to 5
  2135                           ; switch strategies available:
  2136                           ; Name         Instructions Cycles
  2137                           ; simple_byte           13     7 (average)
  2138                           ; direct_byte           19     9 (fixed)
  2139                           ; jumptable            263     9 (fixed)
  2140                           ;	Chosen strategy is simple_byte
  2141     0135  0836               	movf	??_main,w
  2142     0136  3A01               	xorlw	1	; case 1
  2143     0137  1903               	skipnz
  2144     0138  2913               	goto	l1542
  2145     0139  3A03               	xorlw	3	; case 2
  2146     013A  1903               	skipnz
  2147     013B  291D               	goto	l1548
  2148     013C  3A01               	xorlw	1	; case 3
  2149     013D  1903               	skipnz
  2150     013E  299B               	goto	l192
  2151     013F  3A06               	xorlw	6	; case 5
  2152     0140  1903               	skipnz
  2153     0141  2922               	goto	l1550
  2154     0142  2927               	goto	l1552
  2155     0143                     l1556:
  2156                           
  2157                           ;main.c: 91:                     switch(UART_receive_buffer[0]){
  2158     0143  0339               	decf	_MENU_f_first_entrance,w	;volatile
  2159     0144  1D03               	btfss	3,2
  2160     0145  2947               	goto	u471
  2161     0146  2948               	goto	u470
  2162     0147                     u471:
  2163     0147  2953               	goto	l1574
  2164     0148                     u470:
  2165     0148                     l1558:
  2166                           
  2167                           ;main.c: 92:                         case 0x01:
  2168     0148  01B9               	clrf	_MENU_f_first_entrance	;volatile
  2169     0149                     l1560:
  2170                           
  2171                           ;main.c: 93:                             UART_send(0xFF);
  2172     0149  0022               	movlb	2	; select bank2
  2173     014A  118D               	bcf	13,3	;volatile
  2174     014B                     l1562:
  2175     014B  120D               	bcf	13,4	;volatile
  2176     014C                     l1564:
  2177     014C  128D               	bcf	13,5	;volatile
  2178     014D                     l1566:
  2179     014D  0020               	movlb	0	; select bank0
  2180     014E  111C               	bcf	28,2	;volatile
  2181     014F                     l1568:
  2182                           
  2183                           ;main.c: 94:                             break;
  2184     014F  0022               	movlb	2	; select bank2
  2185     0150  118D               	bcf	13,3	;volatile
  2186     0151                     l1570:
  2187                           
  2188                           ;main.c: 95:                         case 0x05:
  2189     0151  120D               	bcf	13,4	;volatile
  2190     0152                     l1572:
  2191                           
  2192                           ;main.c: 96:                             UART_send(0x0F);
  2193     0152  168D               	bsf	13,5	;volatile
  2194     0153                     l1574:
  2195                           
  2196                           ;main.c: 99:                             MENU_programmer_mode = 0;
  2197     0153  0020               	movlb	0	; select bank0
  2198     0154  0329               	decf	_f_packet_complete,w	;volatile
  2199     0155  1D03               	btfss	3,2
  2200     0156  2958               	goto	u481
  2201     0157  2959               	goto	u480
  2202     0158                     u481:
  2203     0158  28D0               	goto	l1498
  2204     0159                     u480:
  2205     0159                     l1576:
  2206                           
  2207                           ;main.c: 100:                             MENU_f_first_entrance = 1;
  2208     0159  01A9               	clrf	_f_packet_complete	;volatile
  2209                           
  2210                           ;main.c: 102:                             break;
  2211     015A  2972               	goto	l1590
  2212     015B                     l1578:
  2213                           
  2214                           ;main.c: 104:                             UART_send(0x00);
  2215     015B  30FF               	movlw	255
  2216     015C  3182  227E  3180   	fcall	_UART_send
  2217                           
  2218                           ;main.c: 105:                     }
  2219     015F  2985               	goto	l1592
  2220     0160                     l1580:
  2221                           
  2222                           ;main.c: 107:                 }
  2223     0160  300F               	movlw	15
  2224     0161  3182  227E  3180   	fcall	_UART_send
  2225                           
  2226                           ;main.c: 108:                 break;
  2227     0164  2985               	goto	l1592
  2228     0165                     l1582:
  2229                           
  2230                           ;main.c: 110:     }
  2231     0165  01AA               	clrf	_MENU_programmer_mode	;volatile
  2232     0166                     l1584:
  2233                           
  2234                           ;main.c: 111: 
  2235     0166  3001               	movlw	1
  2236     0167  00B9               	movwf	_MENU_f_first_entrance	;volatile
  2237     0168                     l1586:
  2238                           
  2239                           ;main.c: 112: return;}
  2240     0168  30FF               	movlw	255
  2241     0169  3182  227E  3180   	fcall	_UART_send
  2242                           
  2243                           ;main.c: 113: 
  2244     016C  2985               	goto	l1592
  2245     016D                     l1588:
  2246                           
  2247                           ;main.c: 115: void __attribute__((picinterrupt(("")))) ISR(){
  2248     016D  3000               	movlw	0
  2249     016E  3182  227E  3180   	fcall	_UART_send
  2250                           
  2251                           ;main.c: 116: 
  2252     0171  2985               	goto	l1592
  2253     0172                     l1590:
  2254     0172  0820               	movf	_UART_receive_buffer,w	;volatile
  2255     0173  00B6               	movwf	??_main
  2256     0174  01B7               	clrf	??_main+1
  2257                           
  2258                           ; Switch on 2 bytes has been partitioned into a top level switch of size 1, and 1 sub-sw
      +                          itches
  2259                           ; Switch size 1, requested type "simple"
  2260                           ; Number of cases is 1, Range of values is 0 to 0
  2261                           ; switch strategies available:
  2262                           ; Name         Instructions Cycles
  2263                           ; simple_byte            4     3 (average)
  2264                           ; direct_byte            8     6 (fixed)
  2265                           ; jumptable            260     6 (fixed)
  2266                           ;	Chosen strategy is simple_byte
  2267     0175  0837               	movf	??_main+1,w
  2268     0176  3A00               	xorlw	0	; case 0
  2269     0177  1903               	skipnz
  2270     0178  297A               	goto	l1744
  2271     0179  296D               	goto	l1588
  2272     017A                     l1744:
  2273                           
  2274                           ; Switch size 1, requested type "simple"
  2275                           ; Number of cases is 3, Range of values is 1 to 5
  2276                           ; switch strategies available:
  2277                           ; Name         Instructions Cycles
  2278                           ; simple_byte           10     6 (average)
  2279                           ; direct_byte           19     9 (fixed)
  2280                           ; jumptable            263     9 (fixed)
  2281                           ;	Chosen strategy is simple_byte
  2282     017A  0836               	movf	??_main,w
  2283     017B  3A01               	xorlw	1	; case 1
  2284     017C  1903               	skipnz
  2285     017D  295B               	goto	l1578
  2286     017E  3A03               	xorlw	3	; case 2
  2287     017F  1903               	skipnz
  2288     0180  2965               	goto	l1582
  2289     0181  3A07               	xorlw	7	; case 5
  2290     0182  1903               	skipnz
  2291     0183  2960               	goto	l1580
  2292     0184  296D               	goto	l1588
  2293     0185                     l1592:
  2294                           
  2295                           ;main.c: 117: 
  2296     0185  0023               	movlb	3	; select bank3
  2297     0186  0819               	movf	25,w	;volatile
  2298     0187  0819               	movf	25,w	;volatile
  2299     0188                     l1594:
  2300     0188  161D               	bsf	29,4	;volatile
  2301     0189  28D0               	goto	l1498
  2302     018A                     l1598:
  2303     018A  0020               	movlb	0	; select bank0
  2304     018B  082A               	movf	_MENU_programmer_mode,w	;volatile
  2305     018C  00B6               	movwf	??_main
  2306     018D  01B7               	clrf	??_main+1
  2307                           
  2308                           ; Switch on 2 bytes has been partitioned into a top level switch of size 1, and 1 sub-sw
      +                          itches
  2309                           ; Switch size 1, requested type "simple"
  2310                           ; Number of cases is 1, Range of values is 0 to 0
  2311                           ; switch strategies available:
  2312                           ; Name         Instructions Cycles
  2313                           ; simple_byte            4     3 (average)
  2314                           ; direct_byte            8     6 (fixed)
  2315                           ; jumptable            260     6 (fixed)
  2316                           ;	Chosen strategy is simple_byte
  2317     018E  0837               	movf	??_main+1,w
  2318     018F  3A00               	xorlw	0	; case 0
  2319     0190  1903               	skipnz
  2320     0191  2993               	goto	l1746
  2321     0192  28D0               	goto	l1498
  2322     0193                     l1746:
  2323                           
  2324                           ; Switch size 1, requested type "simple"
  2325                           ; Number of cases is 2, Range of values is 0 to 1
  2326                           ; switch strategies available:
  2327                           ; Name         Instructions Cycles
  2328                           ; simple_byte            7     4 (average)
  2329                           ; direct_byte           10     6 (fixed)
  2330                           ; jumptable            260     6 (fixed)
  2331                           ;	Chosen strategy is simple_byte
  2332     0193  0836               	movf	??_main,w
  2333     0194  3A00               	xorlw	0	; case 0
  2334     0195  1903               	skipnz
  2335     0196  28EC               	goto	l1512
  2336     0197  3A01               	xorlw	1	; case 1
  2337     0198  1903               	skipnz
  2338     0199  2943               	goto	l1556
  2339     019A  28D0               	goto	l1498
  2340     019B                     l192:
  2341     019B  28D0               	goto	l1498
  2342     019C  28AF               	ljmp	start
  2343     019D                     __end_of_main:
  2344                           
  2345                           	psect	text1
  2346     0232                     __ptext1:	
  2347 ;; *************** function _programmer_init *****************
  2348 ;; Defined at:
  2349 ;;		line 14 in file "programmer_init.c"
  2350 ;; Parameters:    Size  Location     Type
  2351 ;;		None
  2352 ;; Auto vars:     Size  Location     Type
  2353 ;;		None
  2354 ;; Return value:  Size  Location     Type
  2355 ;;                  1    wreg      void 
  2356 ;; Registers used:
  2357 ;;		wreg, status,2, status,0, pclath, cstack
  2358 ;; Tracked objects:
  2359 ;;		On entry : 0/0
  2360 ;;		On exit  : 0/0
  2361 ;;		Unchanged: 0/0
  2362 ;; Data sizes:     COMMON   BANK0   BANK1   BANK2
  2363 ;;      Params:         0       0       0       0
  2364 ;;      Locals:         0       0       0       0
  2365 ;;      Temps:          0       0       0       0
  2366 ;;      Totals:         0       0       0       0
  2367 ;;Total ram usage:        0 bytes
  2368 ;; Hardware stack levels used: 1
  2369 ;; Hardware stack levels required when called: 3
  2370 ;; This function calls:
  2371 ;;		_ADC_init
  2372 ;;		_TMR1_init
  2373 ;;		_TMR2_init
  2374 ;;		_UART_init
  2375 ;; This function is called by:
  2376 ;;		_main
  2377 ;; This function uses a non-reentrant model
  2378 ;;
  2379                           
  2380     0232                     _programmer_init:	
  2381                           ;psect for function _programmer_init
  2382                           
  2383     0232                     l1462:	
  2384                           ;incstack = 0
  2385                           ; Regs used in _programmer_init: [wreg+status,2+status,0+pclath+cstack]
  2386                           
  2387                           
  2388                           ;programmer_init.c: 17:     LATAbits.LATA3 = 0;
  2389     0232  0022               	movlb	2	; select bank2
  2390     0233  118C               	bcf	12,3	;volatile
  2391                           
  2392                           ;programmer_init.c: 18:     LATAbits.LATA2 = 0;
  2393     0234  110C               	bcf	12,2	;volatile
  2394                           
  2395                           ;programmer_init.c: 19:     LATAbits.LATA1 = 0;
  2396     0235  108C               	bcf	12,1	;volatile
  2397                           
  2398                           ;programmer_init.c: 20:     LATAbits.LATA0 = 0;
  2399     0236  100C               	bcf	12,0	;volatile
  2400                           
  2401                           ;programmer_init.c: 22:     TRISAbits.TRISA3 = 0;
  2402     0237  0021               	movlb	1	; select bank1
  2403     0238  118C               	bcf	12,3	;volatile
  2404                           
  2405                           ;programmer_init.c: 23:     TRISAbits.TRISA2 = 0;
  2406     0239  110C               	bcf	12,2	;volatile
  2407                           
  2408                           ;programmer_init.c: 24:     TRISAbits.TRISA1 = 0;
  2409     023A  108C               	bcf	12,1	;volatile
  2410                           
  2411                           ;programmer_init.c: 25:     TRISAbits.TRISA0 = 0;
  2412     023B  100C               	bcf	12,0	;volatile
  2413                           
  2414                           ;programmer_init.c: 28:     LATBbits.LATB3 = 0;
  2415     023C  0022               	movlb	2	; select bank2
  2416     023D  118D               	bcf	13,3	;volatile
  2417                           
  2418                           ;programmer_init.c: 29:     LATBbits.LATB4 = 0;
  2419     023E  120D               	bcf	13,4	;volatile
  2420                           
  2421                           ;programmer_init.c: 30:     LATBbits.LATB5 = 0;
  2422     023F  128D               	bcf	13,5	;volatile
  2423                           
  2424                           ;programmer_init.c: 31:     LATBbits.LATB7 = 0;
  2425     0240  138D               	bcf	13,7	;volatile
  2426                           
  2427                           ;programmer_init.c: 33:     TRISBbits.TRISB3 = 0;
  2428     0241  0021               	movlb	1	; select bank1
  2429     0242  118D               	bcf	13,3	;volatile
  2430                           
  2431                           ;programmer_init.c: 34:     TRISBbits.TRISB4 = 0;
  2432     0243  120D               	bcf	13,4	;volatile
  2433                           
  2434                           ;programmer_init.c: 35:     TRISBbits.TRISB5 = 0;
  2435     0244  128D               	bcf	13,5	;volatile
  2436                           
  2437                           ;programmer_init.c: 36:     TRISBbits.TRISB7 = 0;
  2438     0245  138D               	bcf	13,7	;volatile
  2439                           
  2440                           ;programmer_init.c: 37:     TRISBbits.TRISB6 = 0;
  2441     0246  130D               	bcf	13,6	;volatile
  2442                           
  2443                           ;programmer_init.c: 42:     INTCONbits.INTF = 0;
  2444     0247  108B               	bcf	11,1	;volatile
  2445                           
  2446                           ;programmer_init.c: 43:     INTCONbits.INTE = 1;
  2447     0248  160B               	bsf	11,4	;volatile
  2448     0249                     l1464:
  2449                           
  2450                           ;programmer_init.c: 47:     UART_init();
  2451     0249  3182  225A  3182   	fcall	_UART_init
  2452                           
  2453                           ;programmer_init.c: 48:     ADC_init();
  2454     024C  3182  229C  3182   	fcall	_ADC_init
  2455                           
  2456                           ;programmer_init.c: 49:     TMR1_init();
  2457     024F  3182  228A  3182   	fcall	_TMR1_init
  2458                           
  2459                           ;programmer_init.c: 50:     TMR2_init();
  2460     0252  3182  2294  3182   	fcall	_TMR2_init
  2461     0255                     l1466:
  2462                           
  2463                           ;programmer_init.c: 51:     { TMR1H = 0; TMR1L = 0; T1CONbits.TMR1ON = 1; };
  2464     0255  0020               	movlb	0	; select bank0
  2465     0256  0197               	clrf	23	;volatile
  2466     0257                     l1468:
  2467     0257  0196               	clrf	22	;volatile
  2468     0258                     l1470:
  2469     0258  1418               	bsf	24,0	;volatile
  2470     0259                     l258:
  2471     0259  0008               	return
  2472     025A                     __end_of_programmer_init:
  2473                           
  2474                           	psect	text2
  2475     025A                     __ptext2:	
  2476 ;; *************** function _UART_init *****************
  2477 ;; Defined at:
  2478 ;;		line 13 in file "UART_init.c"
  2479 ;; Parameters:    Size  Location     Type
  2480 ;;		None
  2481 ;; Auto vars:     Size  Location     Type
  2482 ;;		None
  2483 ;; Return value:  Size  Location     Type
  2484 ;;                  1    wreg      void 
  2485 ;; Registers used:
  2486 ;;		wreg
  2487 ;; Tracked objects:
  2488 ;;		On entry : 0/0
  2489 ;;		On exit  : 0/0
  2490 ;;		Unchanged: 0/0
  2491 ;; Data sizes:     COMMON   BANK0   BANK1   BANK2
  2492 ;;      Params:         0       0       0       0
  2493 ;;      Locals:         0       0       0       0
  2494 ;;      Temps:          0       0       0       0
  2495 ;;      Totals:         0       0       0       0
  2496 ;;Total ram usage:        0 bytes
  2497 ;; Hardware stack levels used: 1
  2498 ;; Hardware stack levels required when called: 2
  2499 ;; This function calls:
  2500 ;;		Nothing
  2501 ;; This function is called by:
  2502 ;;		_programmer_init
  2503 ;; This function uses a non-reentrant model
  2504 ;;
  2505                           
  2506     025A                     _UART_init:	
  2507                           ;psect for function _UART_init
  2508                           
  2509     025A                     l1376:	
  2510                           ;incstack = 0
  2511                           ; Regs used in _UART_init: [wreg]
  2512                           
  2513                           
  2514                           ;UART_init.c: 16:     ANSELBbits.ANSB1 = 0;
  2515     025A  0023               	movlb	3	; select bank3
  2516     025B  108D               	bcf	13,1	;volatile
  2517                           
  2518                           ;UART_init.c: 17:     TRISBbits.TRISB1 = 1;
  2519     025C  0021               	movlb	1	; select bank1
  2520     025D  148D               	bsf	13,1	;volatile
  2521                           
  2522                           ;UART_init.c: 18:     TRISBbits.TRISB2 = 0;
  2523     025E  110D               	bcf	13,2	;volatile
  2524     025F                     l1378:
  2525                           
  2526                           ;UART_init.c: 30:     TXSTA = 0b00100110;
  2527     025F  3026               	movlw	38
  2528     0260  0023               	movlb	3	; select bank3
  2529     0261  009E               	movwf	30	;volatile
  2530                           
  2531                           ;UART_init.c: 42:     RCSTA = 0b10010000;
  2532     0262  3090               	movlw	144
  2533     0263  009D               	movwf	29	;volatile
  2534     0264                     l1380:
  2535                           
  2536                           ;UART_init.c: 45:     BAUDCONbits.BRG16 = 1;
  2537     0264  159F               	bsf	31,3	;volatile
  2538                           
  2539                           ;UART_init.c: 51:     SPBRG = 51;
  2540     0265  3033               	movlw	51
  2541     0266  009B               	movwf	27	;volatile
  2542                           
  2543                           ;UART_init.c: 54:     RCREG;
  2544     0267  0819               	movf	25,w	;volatile
  2545                           
  2546                           ;UART_init.c: 55:     RCREG;
  2547     0268  0819               	movf	25,w	;volatile
  2548     0269                     l1382:
  2549                           
  2550                           ;UART_init.c: 56:     INTCONbits.PEIE = 1;
  2551     0269  170B               	bsf	11,6	;volatile
  2552     026A                     l1384:
  2553                           
  2554                           ;UART_init.c: 57:     PIE1bits.RCIE = 1;
  2555     026A  0021               	movlb	1	; select bank1
  2556     026B  1691               	bsf	17,5	;volatile
  2557     026C                     l100:
  2558     026C  0008               	return
  2559     026D                     __end_of_UART_init:
  2560                           
  2561                           	psect	text3
  2562     0294                     __ptext3:	
  2563 ;; *************** function _TMR2_init *****************
  2564 ;; Defined at:
  2565 ;;		line 15 in file "TMR2_init.c"
  2566 ;; Parameters:    Size  Location     Type
  2567 ;;		None
  2568 ;; Auto vars:     Size  Location     Type
  2569 ;;		None
  2570 ;; Return value:  Size  Location     Type
  2571 ;;                  1    wreg      void 
  2572 ;; Registers used:
  2573 ;;		wreg
  2574 ;; Tracked objects:
  2575 ;;		On entry : 0/0
  2576 ;;		On exit  : 0/0
  2577 ;;		Unchanged: 0/0
  2578 ;; Data sizes:     COMMON   BANK0   BANK1   BANK2
  2579 ;;      Params:         0       0       0       0
  2580 ;;      Locals:         0       0       0       0
  2581 ;;      Temps:          0       0       0       0
  2582 ;;      Totals:         0       0       0       0
  2583 ;;Total ram usage:        0 bytes
  2584 ;; Hardware stack levels used: 1
  2585 ;; Hardware stack levels required when called: 2
  2586 ;; This function calls:
  2587 ;;		Nothing
  2588 ;; This function is called by:
  2589 ;;		_programmer_init
  2590 ;; This function uses a non-reentrant model
  2591 ;;
  2592                           
  2593     0294                     _TMR2_init:	
  2594                           ;psect for function _TMR2_init
  2595                           
  2596     0294                     l1368:	
  2597                           ;incstack = 0
  2598                           ; Regs used in _TMR2_init: [wreg]
  2599                           
  2600                           
  2601                           ;TMR2_init.c: 23:     T2CON = 0b01111011;
  2602     0294  307B               	movlw	123
  2603     0295  0020               	movlb	0	; select bank0
  2604     0296  009C               	movwf	28	;volatile
  2605     0297                     l1370:
  2606                           
  2607                           ;TMR2_init.c: 26:     INTCONbits.PEIE = 1;
  2608     0297  170B               	bsf	11,6	;volatile
  2609     0298                     l1372:
  2610                           
  2611                           ;TMR2_init.c: 27:     PIR1bits.TMR2IF = 0;
  2612     0298  1091               	bcf	17,1	;volatile
  2613     0299                     l1374:
  2614                           
  2615                           ;TMR2_init.c: 28:     PIE1bits.TMR2IE = 1;
  2616     0299  0021               	movlb	1	; select bank1
  2617     029A  1491               	bsf	17,1	;volatile
  2618     029B                     l75:
  2619     029B  0008               	return
  2620     029C                     __end_of_TMR2_init:
  2621                           
  2622                           	psect	text4
  2623     028A                     __ptext4:	
  2624 ;; *************** function _TMR1_init *****************
  2625 ;; Defined at:
  2626 ;;		line 15 in file "TMR1_init.c"
  2627 ;; Parameters:    Size  Location     Type
  2628 ;;		None
  2629 ;; Auto vars:     Size  Location     Type
  2630 ;;		None
  2631 ;; Return value:  Size  Location     Type
  2632 ;;                  1    wreg      void 
  2633 ;; Registers used:
  2634 ;;		wreg, status,2
  2635 ;; Tracked objects:
  2636 ;;		On entry : 0/0
  2637 ;;		On exit  : 0/0
  2638 ;;		Unchanged: 0/0
  2639 ;; Data sizes:     COMMON   BANK0   BANK1   BANK2
  2640 ;;      Params:         0       0       0       0
  2641 ;;      Locals:         0       0       0       0
  2642 ;;      Temps:          0       0       0       0
  2643 ;;      Totals:         0       0       0       0
  2644 ;;Total ram usage:        0 bytes
  2645 ;; Hardware stack levels used: 1
  2646 ;; Hardware stack levels required when called: 2
  2647 ;; This function calls:
  2648 ;;		Nothing
  2649 ;; This function is called by:
  2650 ;;		_programmer_init
  2651 ;; This function uses a non-reentrant model
  2652 ;;
  2653                           
  2654     028A                     _TMR1_init:	
  2655                           ;psect for function _TMR1_init
  2656                           
  2657     028A                     l1358:	
  2658                           ;incstack = 0
  2659                           ; Regs used in _TMR1_init: [wreg+status,2]
  2660                           
  2661                           
  2662                           ;TMR1_init.c: 18:     TMR1H = 0;
  2663     028A  0020               	movlb	0	; select bank0
  2664     028B  0197               	clrf	23	;volatile
  2665                           
  2666                           ;TMR1_init.c: 19:     TMR1L = 0;
  2667     028C  0196               	clrf	22	;volatile
  2668     028D                     l1360:
  2669                           
  2670                           ;TMR1_init.c: 29:     T1CON = 0b00110000;
  2671     028D  3030               	movlw	48
  2672     028E  0098               	movwf	24	;volatile
  2673     028F                     l1362:
  2674                           
  2675                           ;TMR1_init.c: 32:     INTCONbits.PEIE = 1;
  2676     028F  170B               	bsf	11,6	;volatile
  2677     0290                     l1364:
  2678                           
  2679                           ;TMR1_init.c: 33:     PIR1bits.TMR1IF = 0;
  2680     0290  1011               	bcf	17,0	;volatile
  2681     0291                     l1366:
  2682                           
  2683                           ;TMR1_init.c: 34:     PIE1bits.TMR1IE = 1;
  2684     0291  0021               	movlb	1	; select bank1
  2685     0292  1411               	bsf	17,0	;volatile
  2686     0293                     l62:
  2687     0293  0008               	return
  2688     0294                     __end_of_TMR1_init:
  2689                           
  2690                           	psect	text5
  2691     029C                     __ptext5:	
  2692 ;; *************** function _ADC_init *****************
  2693 ;; Defined at:
  2694 ;;		line 8 in file "ADC_init.c"
  2695 ;; Parameters:    Size  Location     Type
  2696 ;;		None
  2697 ;; Auto vars:     Size  Location     Type
  2698 ;;		None
  2699 ;; Return value:  Size  Location     Type
  2700 ;;                  1    wreg      void 
  2701 ;; Registers used:
  2702 ;;		wreg
  2703 ;; Tracked objects:
  2704 ;;		On entry : 0/0
  2705 ;;		On exit  : 0/0
  2706 ;;		Unchanged: 0/0
  2707 ;; Data sizes:     COMMON   BANK0   BANK1   BANK2
  2708 ;;      Params:         0       0       0       0
  2709 ;;      Locals:         0       0       0       0
  2710 ;;      Temps:          0       0       0       0
  2711 ;;      Totals:         0       0       0       0
  2712 ;;Total ram usage:        0 bytes
  2713 ;; Hardware stack levels used: 1
  2714 ;; Hardware stack levels required when called: 2
  2715 ;; This function calls:
  2716 ;;		Nothing
  2717 ;; This function is called by:
  2718 ;;		_programmer_init
  2719 ;; This function uses a non-reentrant model
  2720 ;;
  2721                           
  2722     029C                     _ADC_init:	
  2723                           ;psect for function _ADC_init
  2724                           
  2725     029C                     l1356:	
  2726                           ;incstack = 0
  2727                           ; Regs used in _ADC_init: [wreg]
  2728                           
  2729                           
  2730                           ;ADC_init.c: 16:     ADCON0 = 0b00010001;
  2731     029C  3011               	movlw	17
  2732     029D  0021               	movlb	1	; select bank1
  2733     029E  009D               	movwf	29	;volatile
  2734                           
  2735                           ;ADC_init.c: 25:     ADCON1 = 0b00100000;
  2736     029F  3020               	movlw	32
  2737     02A0  009E               	movwf	30	;volatile
  2738     02A1                     l7:
  2739     02A1  0008               	return
  2740     02A2                     __end_of_ADC_init:
  2741                           
  2742                           	psect	text6
  2743     027E                     __ptext6:	
  2744 ;; *************** function _UART_send *****************
  2745 ;; Defined at:
  2746 ;;		line 9 in file "UART_send.c"
  2747 ;; Parameters:    Size  Location     Type
  2748 ;;  data            1    wreg     unsigned char 
  2749 ;; Auto vars:     Size  Location     Type
  2750 ;;  data            1    0[BANK0 ] unsigned char 
  2751 ;; Return value:  Size  Location     Type
  2752 ;;                  1    wreg      void 
  2753 ;; Registers used:
  2754 ;;		wreg
  2755 ;; Tracked objects:
  2756 ;;		On entry : 0/0
  2757 ;;		On exit  : 0/0
  2758 ;;		Unchanged: 0/0
  2759 ;; Data sizes:     COMMON   BANK0   BANK1   BANK2
  2760 ;;      Params:         0       0       0       0
  2761 ;;      Locals:         0       1       0       0
  2762 ;;      Temps:          0       0       0       0
  2763 ;;      Totals:         0       1       0       0
  2764 ;;Total ram usage:        1 bytes
  2765 ;; Hardware stack levels used: 1
  2766 ;; Hardware stack levels required when called: 2
  2767 ;; This function calls:
  2768 ;;		Nothing
  2769 ;; This function is called by:
  2770 ;;		_main
  2771 ;; This function uses a non-reentrant model
  2772 ;;
  2773                           
  2774     027E                     _UART_send:	
  2775                           ;psect for function _UART_send
  2776                           
  2777                           
  2778                           ;incstack = 0
  2779                           ; Regs used in _UART_send: [wreg]
  2780                           ;UART_send@data stored from wreg
  2781     027E  0020               	movlb	0	; select bank0
  2782     027F  00AC               	movwf	UART_send@data
  2783     0280                     l1446:
  2784     0280                     l107:	
  2785                           ;UART_send.c: 12:     while(TXSTAbits.TRMT == 0);
  2786                           
  2787     0280  0023               	movlb	3	; select bank3
  2788     0281  1C9E               	btfss	30,1	;volatile
  2789     0282  2A84               	goto	u391
  2790     0283  2A85               	goto	u390
  2791     0284                     u391:
  2792     0284  2A80               	goto	l107
  2793     0285                     u390:
  2794     0285                     l1448:
  2795                           
  2796                           ;UART_send.c: 15:     TXREG = data;
  2797     0285  0020               	movlb	0	; select bank0
  2798     0286  082C               	movf	UART_send@data,w
  2799     0287  0023               	movlb	3	; select bank3
  2800     0288  009A               	movwf	26	;volatile
  2801     0289                     l110:
  2802     0289  0008               	return
  2803     028A                     __end_of_UART_send:
  2804                           
  2805                           	psect	text7
  2806     019D                     __ptext7:	
  2807 ;; *************** function _SR_write40 *****************
  2808 ;; Defined at:
  2809 ;;		line 12 in file "SR_write40.c"
  2810 ;; Parameters:    Size  Location     Type
  2811 ;;  command         1    wreg     unsigned char 
  2812 ;;  data            2    0[BANK0 ] unsigned short 
  2813 ;;  address         2    2[BANK0 ] unsigned short 
  2814 ;; Auto vars:     Size  Location     Type
  2815 ;;  command         1    6[BANK0 ] unsigned char 
  2816 ;;  i               1    9[BANK0 ] unsigned char 
  2817 ;;  i               1    8[BANK0 ] unsigned char 
  2818 ;;  i               1    7[BANK0 ] unsigned char 
  2819 ;; Return value:  Size  Location     Type
  2820 ;;                  1    wreg      void 
  2821 ;; Registers used:
  2822 ;;		wreg, status,2, status,0
  2823 ;; Tracked objects:
  2824 ;;		On entry : 0/0
  2825 ;;		On exit  : 0/0
  2826 ;;		Unchanged: 0/0
  2827 ;; Data sizes:     COMMON   BANK0   BANK1   BANK2
  2828 ;;      Params:         0       4       0       0
  2829 ;;      Locals:         0       4       0       0
  2830 ;;      Temps:          0       2       0       0
  2831 ;;      Totals:         0      10       0       0
  2832 ;;Total ram usage:       10 bytes
  2833 ;; Hardware stack levels used: 1
  2834 ;; Hardware stack levels required when called: 2
  2835 ;; This function calls:
  2836 ;;		Nothing
  2837 ;; This function is called by:
  2838 ;;		_main
  2839 ;; This function uses a non-reentrant model
  2840 ;;
  2841                           
  2842     019D                     _SR_write40:	
  2843                           ;psect for function _SR_write40
  2844                           
  2845                           
  2846                           ;incstack = 0
  2847                           ; Regs used in _SR_write40: [wreg+status,2+status,0]
  2848                           ;SR_write40@command stored from wreg
  2849     019D  0020               	movlb	0	; select bank0
  2850     019E  00B2               	movwf	SR_write40@command
  2851     019F                     l1386:
  2852                           
  2853                           ;SR_write40.c: 15:     for(uint8_t i = 0; i<16; i++){
  2854     019F  01B3               	clrf	SR_write40@i
  2855     01A0                     l1392:
  2856                           
  2857                           ;SR_write40.c: 16:         LATAbits.LATA3 = (uint8_t)address;
  2858     01A0  0C2E               	rrf	SR_write40@address,w
  2859     01A1  0022               	movlb	2	; select bank2
  2860     01A2  1C03               	skipc
  2861     01A3  118C               	bcf	12,3	;volatile
  2862     01A4  1803               	skipnc
  2863     01A5  158C               	bsf	12,3	;volatile
  2864     01A6                     l1394:
  2865                           
  2866                           ;SR_write40.c: 17:         {LATAbits.LATA0 = 1; __nop(); LATAbits.LATA0 = 0;};
  2867     01A6  140C               	bsf	12,0	;volatile
  2868     01A7                     l1396:
  2869     01A7  0000               	nop
  2870     01A8                     l1398:
  2871     01A8  0022               	movlb	2	; select bank2
  2872     01A9  100C               	bcf	12,0	;volatile
  2873     01AA                     l1400:
  2874                           
  2875                           ;SR_write40.c: 18:         address = address >> 1;
  2876     01AA  0020               	movlb	0	; select bank0
  2877     01AB  082F               	movf	SR_write40@address+1,w
  2878     01AC  00B1               	movwf	??_SR_write40+1
  2879     01AD  082E               	movf	SR_write40@address,w
  2880     01AE  00B0               	movwf	??_SR_write40
  2881     01AF  36B1               	lsrf	??_SR_write40+1,f
  2882     01B0  0CB0               	rrf	??_SR_write40,f
  2883     01B1  0830               	movf	??_SR_write40,w
  2884     01B2  00AE               	movwf	SR_write40@address
  2885     01B3  0831               	movf	??_SR_write40+1,w
  2886     01B4  00AF               	movwf	SR_write40@address+1
  2887     01B5                     l1402:
  2888                           
  2889                           ;SR_write40.c: 19:     }
  2890     01B5  3001               	movlw	1
  2891     01B6  00B0               	movwf	??_SR_write40
  2892     01B7  0830               	movf	??_SR_write40,w
  2893     01B8  07B3               	addwf	SR_write40@i,f
  2894     01B9                     l1404:
  2895     01B9  3010               	movlw	16
  2896     01BA  0233               	subwf	SR_write40@i,w
  2897     01BB  1C03               	skipc
  2898     01BC  29BE               	goto	u361
  2899     01BD  29BF               	goto	u360
  2900     01BE                     u361:
  2901     01BE  29A0               	goto	l1392
  2902     01BF                     u360:
  2903     01BF                     l1406:
  2904                           
  2905                           ;SR_write40.c: 22:     for(uint8_t i = 0; i<16; i++){
  2906     01BF  01B4               	clrf	SR_write40@i_133
  2907     01C0                     l1412:
  2908                           
  2909                           ;SR_write40.c: 23:         LATAbits.LATA3 = (uint8_t)data;
  2910     01C0  0C2C               	rrf	SR_write40@data,w
  2911     01C1  0022               	movlb	2	; select bank2
  2912     01C2  1C03               	skipc
  2913     01C3  118C               	bcf	12,3	;volatile
  2914     01C4  1803               	skipnc
  2915     01C5  158C               	bsf	12,3	;volatile
  2916     01C6                     l1414:
  2917                           
  2918                           ;SR_write40.c: 24:         {LATAbits.LATA0 = 1; __nop(); LATAbits.LATA0 = 0;};
  2919     01C6  140C               	bsf	12,0	;volatile
  2920     01C7                     l1416:
  2921     01C7  0000               	nop
  2922     01C8                     l1418:
  2923     01C8  0022               	movlb	2	; select bank2
  2924     01C9  100C               	bcf	12,0	;volatile
  2925     01CA                     l1420:
  2926                           
  2927                           ;SR_write40.c: 25:         data = data >> 1;
  2928     01CA  0020               	movlb	0	; select bank0
  2929     01CB  082D               	movf	SR_write40@data+1,w
  2930     01CC  00B1               	movwf	??_SR_write40+1
  2931     01CD  082C               	movf	SR_write40@data,w
  2932     01CE  00B0               	movwf	??_SR_write40
  2933     01CF  36B1               	lsrf	??_SR_write40+1,f
  2934     01D0  0CB0               	rrf	??_SR_write40,f
  2935     01D1  0830               	movf	??_SR_write40,w
  2936     01D2  00AC               	movwf	SR_write40@data
  2937     01D3  0831               	movf	??_SR_write40+1,w
  2938     01D4  00AD               	movwf	SR_write40@data+1
  2939     01D5                     l1422:
  2940                           
  2941                           ;SR_write40.c: 26:     }
  2942     01D5  3001               	movlw	1
  2943     01D6  00B0               	movwf	??_SR_write40
  2944     01D7  0830               	movf	??_SR_write40,w
  2945     01D8  07B4               	addwf	SR_write40@i_133,f
  2946     01D9                     l1424:
  2947     01D9  3010               	movlw	16
  2948     01DA  0234               	subwf	SR_write40@i_133,w
  2949     01DB  1C03               	skipc
  2950     01DC  29DE               	goto	u371
  2951     01DD  29DF               	goto	u370
  2952     01DE                     u371:
  2953     01DE  29C0               	goto	l1412
  2954     01DF                     u370:
  2955     01DF                     l1426:
  2956                           
  2957                           ;SR_write40.c: 29:     for(uint8_t i = 0; i<8; i++){
  2958     01DF  01B5               	clrf	SR_write40@i_134
  2959     01E0                     l1432:
  2960                           
  2961                           ;SR_write40.c: 30:         LATAbits.LATA3 = command;
  2962     01E0  0C32               	rrf	SR_write40@command,w
  2963     01E1  0022               	movlb	2	; select bank2
  2964     01E2  1C03               	skipc
  2965     01E3  118C               	bcf	12,3	;volatile
  2966     01E4  1803               	skipnc
  2967     01E5  158C               	bsf	12,3	;volatile
  2968     01E6                     l1434:
  2969                           
  2970                           ;SR_write40.c: 31:         {LATAbits.LATA0 = 1; __nop(); LATAbits.LATA0 = 0;};
  2971     01E6  140C               	bsf	12,0	;volatile
  2972     01E7                     l1436:
  2973     01E7  0000               	nop
  2974     01E8                     l1438:
  2975     01E8  0022               	movlb	2	; select bank2
  2976     01E9  100C               	bcf	12,0	;volatile
  2977     01EA                     l1440:
  2978                           
  2979                           ;SR_write40.c: 32:         command = command >> 1;
  2980     01EA  0020               	movlb	0	; select bank0
  2981     01EB  3632               	lsrf	SR_write40@command,w
  2982     01EC  00B2               	movwf	SR_write40@command
  2983     01ED                     l1442:
  2984                           
  2985                           ;SR_write40.c: 33:     }
  2986     01ED  3001               	movlw	1
  2987     01EE  00B0               	movwf	??_SR_write40
  2988     01EF  0830               	movf	??_SR_write40,w
  2989     01F0  07B5               	addwf	SR_write40@i_134,f
  2990     01F1                     l1444:
  2991     01F1  3008               	movlw	8
  2992     01F2  0235               	subwf	SR_write40@i_134,w
  2993     01F3  1C03               	skipc
  2994     01F4  29F6               	goto	u381
  2995     01F5  29F7               	goto	u380
  2996     01F6                     u381:
  2997     01F6  29E0               	goto	l1432
  2998     01F7                     u380:
  2999     01F7                     l44:
  3000                           
  3001                           ;SR_write40.c: 36:     {LATAbits.LATA1 = 1; __nop(); LATAbits.LATA1 = 0;};
  3002     01F7  0022               	movlb	2	; select bank2
  3003     01F8  148C               	bsf	12,1	;volatile
  3004     01F9  0000               	nop
  3005     01FA  0022               	movlb	2	; select bank2
  3006     01FB  108C               	bcf	12,1	;volatile
  3007     01FC                     l45:
  3008     01FC  0008               	return
  3009     01FD                     __end_of_SR_write40:
  3010                           
  3011                           	psect	intentry
  3012     0004                     __pintentry:	
  3013 ;; *************** function _ISR *****************
  3014 ;; Defined at:
  3015 ;;		line 126 in file "main.c"
  3016 ;; Parameters:    Size  Location     Type
  3017 ;;		None
  3018 ;; Auto vars:     Size  Location     Type
  3019 ;;		None
  3020 ;; Return value:  Size  Location     Type
  3021 ;;                  1    wreg      void 
  3022 ;; Registers used:
  3023 ;;		wreg, fsr1l, fsr1h, status,2, status,0, pclath, cstack
  3024 ;; Tracked objects:
  3025 ;;		On entry : 0/0
  3026 ;;		On exit  : 0/0
  3027 ;;		Unchanged: 0/0
  3028 ;; Data sizes:     COMMON   BANK0   BANK1   BANK2
  3029 ;;      Params:         0       0       0       0
  3030 ;;      Locals:         0       0       0       0
  3031 ;;      Temps:          2       0       0       0
  3032 ;;      Totals:         2       0       0       0
  3033 ;;Total ram usage:        2 bytes
  3034 ;; Hardware stack levels used: 1
  3035 ;; Hardware stack levels required when called: 1
  3036 ;; This function calls:
  3037 ;;		_UART_receive_error_check
  3038 ;;		_check_cks
  3039 ;; This function is called by:
  3040 ;;		Interrupt level 1
  3041 ;; This function uses a non-reentrant model
  3042 ;;
  3043                           
  3044     0004                     _ISR:
  3045                           
  3046                           ;incstack = 0
  3047     0004  147E               	bsf	int$flags,0	;set compiler interrupt flag (level 1)
  3048                           
  3049                           ; Regs used in _ISR: [wreg+fsr1l+fsr1h+status,2+status,0+pclath+cstack]
  3050     0005  3180               	pagesel	$
  3051     0006                     i1l1612:
  3052                           
  3053                           ;main.c: 129: 
  3054     0006  1C8B               	btfss	11,1	;volatile
  3055     0007  2809               	goto	u49_21
  3056     0008  280A               	goto	u49_20
  3057     0009                     u49_21:
  3058     0009  281B               	goto	i1l1620
  3059     000A                     u49_20:
  3060     000A                     i1l1614:
  3061                           
  3062                           ;main.c: 131: 
  3063     000A  0022               	movlb	2	; select bank2
  3064     000B  158D               	bsf	13,3	;volatile
  3065                           
  3066                           ;main.c: 132: 
  3067     000C  160D               	bsf	13,4	;volatile
  3068                           
  3069                           ;main.c: 133:         TMR1_counter++;
  3070     000D  168D               	bsf	13,5	;volatile
  3071     000E                     i1l1616:
  3072                           
  3073                           ;main.c: 134: 
  3074     000E  301F               	movlw	31
  3075     000F  00F8               	movwf	??_ISR+1
  3076     0010  3071               	movlw	113
  3077     0011  00F7               	movwf	??_ISR
  3078     0012  301E               	movlw	30
  3079     0013                     u68_27:
  3080     0013  0B89               	decfsz	9,f
  3081     0014  2813               	goto	u68_27
  3082     0015  0BF7               	decfsz	??_ISR,f
  3083     0016  2813               	goto	u68_27
  3084     0017  0BF8               	decfsz	??_ISR+1,f
  3085     0018  2813               	goto	u68_27
  3086     0019  3200               	nop2
  3087     001A                     i1l1618:
  3088                           
  3089                           ;main.c: 136: 
  3090     001A  108B               	bcf	11,1	;volatile
  3091     001B                     i1l1620:
  3092                           
  3093                           ;main.c: 141: 
  3094     001B  0020               	movlb	0	; select bank0
  3095     001C  1C11               	btfss	17,0	;volatile
  3096     001D  281F               	goto	u50_21
  3097     001E  2820               	goto	u50_20
  3098     001F                     u50_21:
  3099     001F  282E               	goto	i1l1630
  3100     0020                     u50_20:
  3101     0020                     i1l1622:
  3102                           
  3103                           ;main.c: 144:     }
  3104     0020  3001               	movlw	1
  3105     0021  00F7               	movwf	??_ISR
  3106     0022  0877               	movf	??_ISR,w
  3107     0023  07FD               	addwf	_TMR1_counter,f
  3108                           
  3109                           ;main.c: 148:     if(PIR1bits.TMR2IF == 1){
  3110     0024  300C               	movlw	12
  3111     0025  067D               	xorwf	_TMR1_counter,w
  3112     0026  1D03               	btfss	3,2
  3113     0027  2829               	goto	u51_21
  3114     0028  282A               	goto	u51_20
  3115     0029                     u51_21:
  3116     0029  282D               	goto	i1l1628
  3117     002A                     u51_20:
  3118     002A                     i1l1624:
  3119                           
  3120                           ;main.c: 149: 
  3121     002A  01FD               	clrf	_TMR1_counter
  3122     002B                     i1l1626:
  3123                           
  3124                           ;main.c: 150: 
  3125     002B  3001               	movlw	1
  3126     002C  00A8               	movwf	_f_receive_problem	;volatile
  3127     002D                     i1l1628:
  3128                           
  3129                           ;main.c: 154: 
  3130     002D  1011               	bcf	17,0	;volatile
  3131     002E                     i1l1630:
  3132                           
  3133                           ;main.c: 159:             if(f_blink_green == 1) LATBbits.LATB5 = ~LATBbits.LATB5;
  3134     002E  1C91               	btfss	17,1	;volatile
  3135     002F  2831               	goto	u52_21
  3136     0030  2832               	goto	u52_20
  3137     0031                     u52_21:
  3138     0031  2872               	goto	i1l1650
  3139     0032                     u52_20:
  3140     0032                     i1l1632:
  3141                           
  3142                           ;main.c: 162: 
  3143     0032  3001               	movlw	1
  3144     0033  00F7               	movwf	??_ISR
  3145     0034  0877               	movf	??_ISR,w
  3146     0035  07AB               	addwf	_TMR2_counter,f
  3147                           
  3148                           ;main.c: 166: 
  3149     0036  3005               	movlw	5
  3150     0037  062B               	xorwf	_TMR2_counter,w
  3151     0038  1D03               	btfss	3,2
  3152     0039  283B               	goto	u53_21
  3153     003A  283C               	goto	u53_20
  3154     003B                     u53_21:
  3155     003B  2870               	goto	i1l1648
  3156     003C                     u53_20:
  3157     003C                     i1l1634:
  3158                           
  3159                           ;main.c: 167: 
  3160     003C  01AB               	clrf	_TMR2_counter
  3161     003D                     i1l1636:
  3162                           
  3163                           ;main.c: 168:     if(PIR1bits.RCIF == 1){
  3164     003D  037B               	decf	_f_blink_red,w	;volatile
  3165     003E  1D03               	btfss	3,2
  3166     003F  2841               	goto	u54_21
  3167     0040  2842               	goto	u54_20
  3168     0041                     u54_21:
  3169     0041  284E               	goto	i1l1640
  3170     0042                     u54_20:
  3171     0042                     i1l1638:
  3172     0042  1003               	clrc
  3173     0043  0022               	movlb	2	; select bank2
  3174     0044  1D8D               	btfss	13,3	;volatile
  3175     0045  1403               	setc
  3176     0046  1803               	btfsc	3,0
  3177     0047  2849               	goto	u55_21
  3178     0048  284C               	goto	u55_20
  3179     0049                     u55_21:
  3180     0049  0022               	movlb	2	; select bank2
  3181     004A  158D               	bsf	13,3	;volatile
  3182     004B  284E               	goto	u56_24
  3183     004C                     u55_20:
  3184     004C  0022               	movlb	2	; select bank2
  3185     004D  118D               	bcf	13,3	;volatile
  3186     004E                     u56_24:
  3187     004E                     i1l1640:
  3188                           
  3189                           ;main.c: 169: 
  3190     004E  037A               	decf	_f_blink_orange,w	;volatile
  3191     004F  1D03               	btfss	3,2
  3192     0050  2852               	goto	u57_21
  3193     0051  2853               	goto	u57_20
  3194     0052                     u57_21:
  3195     0052  285F               	goto	i1l1644
  3196     0053                     u57_20:
  3197     0053                     i1l1642:
  3198     0053  1003               	clrc
  3199     0054  0022               	movlb	2	; select bank2
  3200     0055  1E0D               	btfss	13,4	;volatile
  3201     0056  1403               	setc
  3202     0057  1803               	btfsc	3,0
  3203     0058  285A               	goto	u58_21
  3204     0059  285D               	goto	u58_20
  3205     005A                     u58_21:
  3206     005A  0022               	movlb	2	; select bank2
  3207     005B  160D               	bsf	13,4	;volatile
  3208     005C  285F               	goto	u59_24
  3209     005D                     u58_20:
  3210     005D  0022               	movlb	2	; select bank2
  3211     005E  120D               	bcf	13,4	;volatile
  3212     005F                     u59_24:
  3213     005F                     i1l1644:
  3214                           
  3215                           ;main.c: 170: 
  3216     005F  0379               	decf	_f_blink_green,w	;volatile
  3217     0060  1D03               	btfss	3,2
  3218     0061  2863               	goto	u60_21
  3219     0062  2864               	goto	u60_20
  3220     0063                     u60_21:
  3221     0063  2870               	goto	i1l1648
  3222     0064                     u60_20:
  3223     0064                     i1l1646:
  3224     0064  1003               	clrc
  3225     0065  0022               	movlb	2	; select bank2
  3226     0066  1E8D               	btfss	13,5	;volatile
  3227     0067  1403               	setc
  3228     0068  1803               	btfsc	3,0
  3229     0069  286B               	goto	u61_21
  3230     006A  286E               	goto	u61_20
  3231     006B                     u61_21:
  3232     006B  0022               	movlb	2	; select bank2
  3233     006C  168D               	bsf	13,5	;volatile
  3234     006D  2870               	goto	u62_24
  3235     006E                     u61_20:
  3236     006E  0022               	movlb	2	; select bank2
  3237     006F  128D               	bcf	13,5	;volatile
  3238     0070                     u62_24:
  3239     0070                     i1l1648:
  3240                           
  3241                           ;main.c: 174:             UART_receive_pointer = 0;
  3242     0070  0020               	movlb	0	; select bank0
  3243     0071  1091               	bcf	17,1	;volatile
  3244     0072                     i1l1650:
  3245                           
  3246                           ;main.c: 179:             UART_receive_pointer++;
  3247     0072  1E91               	btfss	17,5	;volatile
  3248     0073  2875               	goto	u63_21
  3249     0074  2876               	goto	u63_20
  3250     0075                     u63_21:
  3251     0075  28AD               	goto	i1l223
  3252     0076                     u63_20:
  3253     0076                     i1l1652:
  3254                           
  3255                           ;main.c: 183:         if(UART_receive_pointer == 4){
  3256     0076  3182  226D  3180   	fcall	_UART_receive_error_check
  3257     0079  3A01               	xorlw	1
  3258     007A  1D03               	skipz
  3259     007B  287D               	goto	u64_21
  3260     007C  287E               	goto	u64_20
  3261     007D                     u64_21:
  3262     007D  2887               	goto	i1l1662
  3263     007E                     u64_20:
  3264     007E                     i1l1654:
  3265                           
  3266                           ;main.c: 184:             { RCSTAbits.CREN = 0; RCREG; RCREG; };
  3267     007E  0023               	movlb	3	; select bank3
  3268     007F  121D               	bcf	29,4	;volatile
  3269     0080                     i1l1656:
  3270     0080  0819               	movf	25,w	;volatile
  3271     0081  0819               	movf	25,w	;volatile
  3272     0082                     i1l1658:
  3273                           
  3274                           ;main.c: 185:             UART_receive_pointer = 0;
  3275     0082  01FC               	clrf	_UART_receive_pointer
  3276     0083                     i1l1660:
  3277                           
  3278                           ;main.c: 186:             TMR1_counter = 0;
  3279     0083  3001               	movlw	1
  3280     0084  0020               	movlb	0	; select bank0
  3281     0085  00A8               	movwf	_f_receive_problem	;volatile
  3282                           
  3283                           ;main.c: 187:             if(check_cks() == 1) f_packet_complete = 1;
  3284     0086  2892               	goto	i1l1666
  3285     0087                     i1l1662:
  3286                           
  3287                           ;main.c: 189:         }
  3288     0087  087C               	movf	_UART_receive_pointer,w
  3289     0088  3E20               	addlw	(low (_UART_receive_buffer| 0))& (0+255)
  3290     0089  0086               	movwf	6
  3291     008A  0187               	clrf	7
  3292     008B  0023               	movlb	3	; select bank3
  3293     008C  0819               	movf	25,w	;volatile
  3294     008D  0081               	movwf	1
  3295     008E                     i1l1664:
  3296                           
  3297                           ;main.c: 190:     }
  3298     008E  3001               	movlw	1
  3299     008F  00F7               	movwf	??_ISR
  3300     0090  0877               	movf	??_ISR,w
  3301     0091  07FC               	addwf	_UART_receive_pointer,f
  3302     0092                     i1l1666:
  3303     0092  3004               	movlw	4
  3304     0093  067C               	xorwf	_UART_receive_pointer,w
  3305     0094  1D03               	btfss	3,2
  3306     0095  2897               	goto	u65_21
  3307     0096  2898               	goto	u65_20
  3308     0097                     u65_21:
  3309     0097  28AD               	goto	i1l223
  3310     0098                     u65_20:
  3311     0098                     i1l1668:
  3312     0098  0023               	movlb	3	; select bank3
  3313     0099  121D               	bcf	29,4	;volatile
  3314     009A                     i1l1670:
  3315     009A  0819               	movf	25,w	;volatile
  3316     009B  0819               	movf	25,w	;volatile
  3317     009C                     i1l1672:
  3318     009C  01FC               	clrf	_UART_receive_pointer
  3319     009D                     i1l1674:
  3320     009D  01FD               	clrf	_TMR1_counter
  3321     009E                     i1l1676:
  3322     009E  3181  21FD  3180   	fcall	_check_cks
  3323     00A1  3A01               	xorlw	1
  3324     00A2  1D03               	skipz
  3325     00A3  28A5               	goto	u66_21
  3326     00A4  28A6               	goto	u66_20
  3327     00A5                     u66_21:
  3328     00A5  28AA               	goto	i1l1680
  3329     00A6                     u66_20:
  3330     00A6                     i1l1678:
  3331     00A6  3001               	movlw	1
  3332     00A7  0020               	movlb	0	; select bank0
  3333     00A8  00A9               	movwf	_f_packet_complete	;volatile
  3334     00A9  28AD               	goto	i1l223
  3335     00AA                     i1l1680:
  3336     00AA  3001               	movlw	1
  3337     00AB  0020               	movlb	0	; select bank0
  3338     00AC  00A8               	movwf	_f_receive_problem	;volatile
  3339     00AD                     i1l223:
  3340     00AD  107E               	bcf	int$flags,0	;clear compiler interrupt flag (level 1)
  3341     00AE  0009               	retfie
  3342     00AF                     __end_of_ISR:
  3343                           
  3344                           	psect	text9
  3345     01FD                     __ptext9:	
  3346 ;; *************** function _check_cks *****************
  3347 ;; Defined at:
  3348 ;;		line 8 in file "check_cks.c"
  3349 ;; Parameters:    Size  Location     Type
  3350 ;;		None
  3351 ;; Auto vars:     Size  Location     Type
  3352 ;;  i               1    6[COMMON] unsigned char 
  3353 ;;  result          2    4[COMMON] unsigned short 
  3354 ;; Return value:  Size  Location     Type
  3355 ;;                  1    wreg      unsigned char 
  3356 ;; Registers used:
  3357 ;;		wreg, fsr1l, fsr1h, status,2, status,0
  3358 ;; Tracked objects:
  3359 ;;		On entry : 0/0
  3360 ;;		On exit  : 0/0
  3361 ;;		Unchanged: 0/0
  3362 ;; Data sizes:     COMMON   BANK0   BANK1   BANK2
  3363 ;;      Params:         0       0       0       0
  3364 ;;      Locals:         3       0       0       0
  3365 ;;      Temps:          4       0       0       0
  3366 ;;      Totals:         7       0       0       0
  3367 ;;Total ram usage:        7 bytes
  3368 ;; Hardware stack levels used: 1
  3369 ;; This function calls:
  3370 ;;		Nothing
  3371 ;; This function is called by:
  3372 ;;		_ISR
  3373 ;; This function uses a non-reentrant model
  3374 ;;
  3375                           
  3376     01FD                     _check_cks:	
  3377                           ;psect for function _check_cks
  3378                           
  3379     01FD                     i1l1472:	
  3380                           ;incstack = 0
  3381                           ; Regs used in _check_cks: [wreg+fsr1l+fsr1h+status,2+status,0]
  3382                           
  3383                           
  3384                           ;check_cks.c: 11:     uint16_t result = 0;
  3385     01FD  01F4               	clrf	check_cks@result
  3386     01FE  01F5               	clrf	check_cks@result+1
  3387                           
  3388                           ;check_cks.c: 12:     for(uint8_t i = 0; i < 4; i++){
  3389     01FF  01F6               	clrf	check_cks@i
  3390     0200                     i1l1478:
  3391                           
  3392                           ;check_cks.c: 13:         result += UART_receive_buffer[i];
  3393     0200  0876               	movf	check_cks@i,w
  3394     0201  3E20               	addlw	(low (_UART_receive_buffer| 0))& (0+255)
  3395     0202  0086               	movwf	6
  3396     0203  0187               	clrf	7
  3397     0204  0801               	movf	1,w
  3398     0205  00F0               	movwf	??_check_cks
  3399     0206  01F1               	clrf	??_check_cks+1
  3400     0207  0870               	movf	??_check_cks,w
  3401     0208  07F4               	addwf	check_cks@result,f
  3402     0209  0871               	movf	??_check_cks+1,w
  3403     020A  3DF5               	addwfc	check_cks@result+1,f
  3404     020B                     i1l1480:
  3405                           
  3406                           ;check_cks.c: 14:     }
  3407     020B  3001               	movlw	1
  3408     020C  00F0               	movwf	??_check_cks
  3409     020D  0870               	movf	??_check_cks,w
  3410     020E  07F6               	addwf	check_cks@i,f
  3411     020F                     i1l1482:
  3412     020F  3004               	movlw	4
  3413     0210  0276               	subwf	check_cks@i,w
  3414     0211  1C03               	skipc
  3415     0212  2A14               	goto	u42_21
  3416     0213  2A15               	goto	u42_20
  3417     0214                     u42_21:
  3418     0214  2A00               	goto	i1l1478
  3419     0215                     u42_20:
  3420     0215                     i1l1484:
  3421                           
  3422                           ;check_cks.c: 17:     result = (result>>8) + (result & 0xFF);
  3423     0215  30FF               	movlw	255
  3424     0216  0574               	andwf	check_cks@result,w
  3425     0217  00F0               	movwf	??_check_cks
  3426     0218  3000               	movlw	0
  3427     0219  0575               	andwf	check_cks@result+1,w
  3428     021A  00F1               	movwf	??_check_cks+1
  3429     021B  0875               	movf	check_cks@result+1,w
  3430     021C  00F3               	movwf	??_check_cks+3
  3431     021D  0874               	movf	check_cks@result,w
  3432     021E  00F2               	movwf	??_check_cks+2
  3433     021F  0873               	movf	??_check_cks+3,w
  3434     0220  00F2               	movwf	??_check_cks+2
  3435     0221  01F3               	clrf	??_check_cks+3
  3436     0222  0870               	movf	??_check_cks,w
  3437     0223  0772               	addwf	??_check_cks+2,w
  3438     0224  00F4               	movwf	check_cks@result
  3439     0225  0871               	movf	??_check_cks+1,w
  3440     0226  3D73               	addwfc	??_check_cks+3,w
  3441     0227  00F5               	movwf	check_cks@result+1
  3442                           
  3443                           ;check_cks.c: 20:     if(result == 255) return 1;
  3444     0228  0A74               	incf	check_cks@result,w
  3445     0229  0475               	iorwf	check_cks@result+1,w
  3446     022A  1D03               	btfss	3,2
  3447     022B  2A2D               	goto	u43_21
  3448     022C  2A2E               	goto	u43_20
  3449     022D                     u43_21:
  3450     022D  2A30               	goto	i1l1490
  3451     022E                     u43_20:
  3452     022E                     i1l1486:
  3453     022E  3001               	movlw	1
  3454     022F  2A31               	goto	i1l231
  3455     0230                     i1l1490:
  3456                           
  3457                           ;check_cks.c: 21:     return 0;
  3458     0230  3000               	movlw	0
  3459     0231                     i1l231:
  3460     0231  0008               	return
  3461     0232                     __end_of_check_cks:
  3462                           
  3463                           	psect	text10
  3464     026D                     __ptext10:	
  3465 ;; *************** function _UART_receive_error_check *****************
  3466 ;; Defined at:
  3467 ;;		line 11 in file "UART_receive_error_check.c"
  3468 ;; Parameters:    Size  Location     Type
  3469 ;;		None
  3470 ;; Auto vars:     Size  Location     Type
  3471 ;;		None
  3472 ;; Return value:  Size  Location     Type
  3473 ;;                  1    wreg      unsigned char 
  3474 ;; Registers used:
  3475 ;;		wreg
  3476 ;; Tracked objects:
  3477 ;;		On entry : 0/0
  3478 ;;		On exit  : 0/0
  3479 ;;		Unchanged: 0/0
  3480 ;; Data sizes:     COMMON   BANK0   BANK1   BANK2
  3481 ;;      Params:         0       0       0       0
  3482 ;;      Locals:         0       0       0       0
  3483 ;;      Temps:          0       0       0       0
  3484 ;;      Totals:         0       0       0       0
  3485 ;;Total ram usage:        0 bytes
  3486 ;; Hardware stack levels used: 1
  3487 ;; This function calls:
  3488 ;;		Nothing
  3489 ;; This function is called by:
  3490 ;;		_ISR
  3491 ;; This function uses a non-reentrant model
  3492 ;;
  3493                           
  3494     026D                     _UART_receive_error_check:	
  3495                           ;psect for function _UART_receive_error_check
  3496                           
  3497     026D                     i1l1450:	
  3498                           ;incstack = 0
  3499                           ; Regs used in _UART_receive_error_check: [wreg]
  3500                           
  3501                           
  3502                           ;UART_receive_error_check.c: 19:     if(RCSTAbits.OERR == 1 || RCSTAbits.FERR == 1){
  3503     026D  0023               	movlb	3	; select bank3
  3504     026E  189D               	btfsc	29,1	;volatile
  3505     026F  2A71               	goto	u40_21
  3506     0270  2A72               	goto	u40_20
  3507     0271                     u40_21:
  3508     0271  2A76               	goto	i1l119
  3509     0272                     u40_20:
  3510     0272                     i1l1452:
  3511     0272  1D1D               	btfss	29,2	;volatile
  3512     0273  2A75               	goto	u41_21
  3513     0274  2A76               	goto	u41_20
  3514     0275                     u41_21:
  3515     0275  2A7C               	goto	i1l1458
  3516     0276                     u41_20:
  3517     0276                     i1l119:
  3518                           
  3519                           ;UART_receive_error_check.c: 20:         RCSTAbits.SPEN = 0;
  3520     0276  139D               	bcf	29,7	;volatile
  3521                           
  3522                           ;UART_receive_error_check.c: 21:         __nop();
  3523     0277  0000               	nop
  3524                           
  3525                           ;UART_receive_error_check.c: 22:         RCSTAbits.SPEN = 1;
  3526     0278  0023               	movlb	3	; select bank3
  3527     0279  179D               	bsf	29,7	;volatile
  3528     027A                     i1l1454:
  3529                           
  3530                           ;UART_receive_error_check.c: 23:         return 1;
  3531     027A  3001               	movlw	1
  3532     027B  2A7D               	goto	i1l120
  3533     027C                     i1l1458:
  3534                           
  3535                           ;UART_receive_error_check.c: 27:     return 0;
  3536     027C  3000               	movlw	0
  3537     027D                     i1l120:
  3538     027D  0008               	return
  3539     027E                     __end_of_UART_receive_error_check:
  3540     007E                     btemp	set	126	;btemp
  3541     007E                     int$flags	set	126
  3542     007E                     wtemp0	set	126
  3543                           
  3544                           	psect	idloc
  3545                           
  3546                           ;Config register IDLOC0 @ 0x8000
  3547                           ;	unspecified, using default values
  3548     8000                     	org	32768
  3549     8000  3FFF               	dw	16383
  3550                           
  3551                           ;Config register IDLOC1 @ 0x8001
  3552                           ;	unspecified, using default values
  3553     8001                     	org	32769
  3554     8001  3FFF               	dw	16383
  3555                           
  3556                           ;Config register IDLOC2 @ 0x8002
  3557                           ;	unspecified, using default values
  3558     8002                     	org	32770
  3559     8002  3FFF               	dw	16383
  3560                           
  3561                           ;Config register IDLOC3 @ 0x8003
  3562                           ;	unspecified, using default values
  3563     8003                     	org	32771
  3564     8003  3FFF               	dw	16383
  3565                           
  3566                           	psect	config
  3567                           
  3568                           ;Config register CONFIG1 @ 0x8007
  3569                           ;	Oscillator Selection
  3570                           ;	FOSC = HS, HS Oscillator, High-speed crystal/resonator connected between OSC1 and OSC2
      +                           pins
  3571                           ;	Watchdog Timer Enable
  3572                           ;	WDTE = OFF, WDT disabled
  3573                           ;	Power-up Timer Enable
  3574                           ;	PWRTE = OFF, PWRT disabled
  3575                           ;	MCLR Pin Function Select
  3576                           ;	MCLRE = ON, MCLR/VPP pin function is MCLR
  3577                           ;	Flash Program Memory Code Protection
  3578                           ;	CP = OFF, Program memory code protection is disabled
  3579                           ;	Data Memory Code Protection
  3580                           ;	CPD = OFF, Data memory code protection is disabled
  3581                           ;	Brown-out Reset Enable
  3582                           ;	BOREN = ON, Brown-out Reset enabled
  3583                           ;	Clock Out Enable
  3584                           ;	CLKOUTEN = OFF, CLKOUT function is disabled. I/O or oscillator function on the CLKOUT 
      +                          pin
  3585                           ;	Internal/External Switchover
  3586                           ;	IESO = ON, Internal/External Switchover mode is enabled
  3587                           ;	Fail-Safe Clock Monitor Enable
  3588                           ;	FCMEN = ON, Fail-Safe Clock Monitor is enabled
  3589     8007                     	org	32775
  3590     8007  3FE2               	dw	16354
  3591                           
  3592                           ;Config register CONFIG2 @ 0x8008
  3593                           ;	Flash Memory Self-Write Protection
  3594                           ;	WRT = OFF, Write protection off
  3595                           ;	PLL Enable
  3596                           ;	PLLEN = ON, 4x PLL enabled
  3597                           ;	Stack Overflow/Underflow Reset Enable
  3598                           ;	STVREN = ON, Stack Overflow or Underflow will cause a Reset
  3599                           ;	Brown-out Reset Voltage Selection
  3600                           ;	BORV = LO, Brown-out Reset Voltage (Vbor), low trip point selected.
  3601                           ;	Low-Voltage Programming Enable
  3602                           ;	LVP = OFF, High-voltage on MCLR/VPP must be used for programming
  3603     8008                     	org	32776
  3604     8008  1FFF               	dw	8191

Data Sizes:
    Strings     0
    Constant    0
    Data        2
    BSS         17
    Persistent  32
    Stack       0

Auto Spaces:
    Space          Size  Autos    Used
    COMMON           14      9      14
    BANK0            80     12      26
    BANK1            80      0       0
    BANK2            80      0       0

Pointer List with Targets:

    None.

Critical Paths under _main in COMMON

    None.

Critical Paths under _ISR in COMMON

    _ISR->_check_cks

Critical Paths under _main in BANK0

    _main->_SR_write40

Critical Paths under _ISR in BANK0

    None.

Critical Paths under _main in BANK1

    None.

Critical Paths under _ISR in BANK1

    None.

Critical Paths under _main in BANK2

    None.

Critical Paths under _ISR in BANK2

    None.

Call Graph Tables:

 ---------------------------------------------------------------------------------
 (Depth) Function   	        Calls       Base Space   Used Autos Params    Refs
 ---------------------------------------------------------------------------------
 (0) _main                                                 2     2      0     447
                                             10 BANK0      2     2      0
                         _SR_write40
                          _UART_send
                    _programmer_init
 ---------------------------------------------------------------------------------
 (1) _programmer_init                                      0     0      0       0
                           _ADC_init
                          _TMR1_init
                          _TMR2_init
                          _UART_init
 ---------------------------------------------------------------------------------
 (2) _UART_init                                            0     0      0       0
 ---------------------------------------------------------------------------------
 (2) _TMR2_init                                            0     0      0       0
 ---------------------------------------------------------------------------------
 (2) _TMR1_init                                            0     0      0       0
 ---------------------------------------------------------------------------------
 (2) _ADC_init                                             0     0      0       0
 ---------------------------------------------------------------------------------
 (1) _UART_send                                            1     1      0      22
                                              0 BANK0      1     1      0
 ---------------------------------------------------------------------------------
 (1) _SR_write40                                          10     6      4     425
                                              0 BANK0     10     6      4
 ---------------------------------------------------------------------------------
 Estimated maximum stack depth 2
 ---------------------------------------------------------------------------------
 (Depth) Function   	        Calls       Base Space   Used Autos Params    Refs
 ---------------------------------------------------------------------------------
 (3) _ISR                                                  2     2      0     137
                                              7 COMMON     2     2      0
           _UART_receive_error_check
                          _check_cks
 ---------------------------------------------------------------------------------
 (4) _check_cks                                            7     7      0     137
                                              0 COMMON     7     7      0
 ---------------------------------------------------------------------------------
 (4) _UART_receive_error_check                             0     0      0       0
 ---------------------------------------------------------------------------------
 Estimated maximum stack depth 4
 ---------------------------------------------------------------------------------

 Call Graph Graphs:

 _main (ROOT)
   _SR_write40
   _UART_send
   _programmer_init
     _ADC_init
     _TMR1_init
     _TMR2_init
     _UART_init

 _ISR (ROOT)
   _UART_receive_error_check
   _check_cks

 Address spaces:
Name               Size   Autos  Total    Cost      Usage
BIGRAM              F0      0       0       0        0.0%
EEDATA             100      0       0       0        0.0%
NULL                 0      0       0       0        0.0%
CODE                 0      0       0       0        0.0%
BITCOMMON            E      0       0       1        0.0%
BITSFR0              0      0       0       1        0.0%
SFR0                 0      0       0       1        0.0%
COMMON               E      9       E       2      100.0%
BITSFR1              0      0       0       2        0.0%
SFR1                 0      0       0       2        0.0%
BITSFR2              0      0       0       3        0.0%
SFR2                 0      0       0       3        0.0%
STACK                0      0       0       3        0.0%
BITSFR3              0      0       0       4        0.0%
SFR3                 0      0       0       4        0.0%
ABS                  0      0      28       4        0.0%
BITBANK0            50      0       0       5        0.0%
BITSFR4              0      0       0       5        0.0%
SFR4                 0      0       0       5        0.0%
BANK0               50      C      1A       6       32.5%
BITSFR5              0      0       0       6        0.0%
SFR5                 0      0       0       6        0.0%
BITBANK1            50      0       0       7        0.0%
BITSFR6              0      0       0       7        0.0%
SFR6                 0      0       0       7        0.0%
BANK1               50      0       0       8        0.0%
BITSFR7              0      0       0       8        0.0%
SFR7                 0      0       0       8        0.0%
BITBANK2            50      0       0       9        0.0%
BITSFR8              0      0       0       9        0.0%
SFR8                 0      0       0       9        0.0%
BANK2               50      0       0      10        0.0%
BITSFR9              0      0       0      10        0.0%
SFR9                 0      0       0      10        0.0%
BITSFR10             0      0       0      11        0.0%
SFR10                0      0       0      11        0.0%
DATA                 0      0      28      11        0.0%
BITSFR11             0      0       0      12        0.0%
SFR11                0      0       0      12        0.0%
BITSFR12             0      0       0      13        0.0%
SFR12                0      0       0      13        0.0%
BITSFR13             0      0       0      14        0.0%
SFR13                0      0       0      14        0.0%
BITSFR14             0      0       0      15        0.0%
SFR14                0      0       0      15        0.0%
BITSFR15             0      0       0      16        0.0%
SFR15                0      0       0      16        0.0%
BITSFR16             0      0       0      17        0.0%
SFR16                0      0       0      17        0.0%
BITSFR17             0      0       0      18        0.0%
SFR17                0      0       0      18        0.0%
BITSFR18             0      0       0      19        0.0%
SFR18                0      0       0      19        0.0%
BITSFR19             0      0       0      20        0.0%
SFR19                0      0       0      20        0.0%
BITSFR20             0      0       0      21        0.0%
SFR20                0      0       0      21        0.0%
BITSFR21             0      0       0      22        0.0%
SFR21                0      0       0      22        0.0%
BITSFR22             0      0       0      23        0.0%
SFR22                0      0       0      23        0.0%
BITSFR23             0      0       0      24        0.0%
SFR23                0      0       0      24        0.0%
BITSFR24             0      0       0      25        0.0%
SFR24                0      0       0      25        0.0%
BITSFR25             0      0       0      26        0.0%
SFR25                0      0       0      26        0.0%
BITSFR26             0      0       0      27        0.0%
SFR26                0      0       0      27        0.0%
BITSFR27             0      0       0      28        0.0%
SFR27                0      0       0      28        0.0%
BITSFR28             0      0       0      29        0.0%
SFR28                0      0       0      29        0.0%
BITSFR29             0      0       0      30        0.0%
SFR29                0      0       0      30        0.0%
BITSFR30             0      0       0      31        0.0%
SFR30                0      0       0      31        0.0%
BITSFR31             0      0       0      32        0.0%
SFR31                0      0       0      32        0.0%


Microchip Technology PIC Macro Assembler V2.40 build 20220703182018 
Symbol Table                                                                                   Tue Mar 21 18:06:40 2023

                               l7 02A1                                l44 01F7                                l45 01FC  
                              l62 0293                                l75 029B           __end_of_programmer_init 025A  
                             l100 026C                               l110 0289                               l107 0280  
                             l192 019B                               l258 0259                               u360 01BF  
                             u440 00D6                               u361 01BE                               u441 00D5  
                             u370 01DF                               u450 00F1                               u371 01DE  
                             u451 00F0                               u380 01F7                               u460 010D  
                             _ISR 0004                               u381 01F6                               u461 010C  
                             u390 0285                               u470 0148                               u391 0284  
                             u471 0147                               u480 0159                               u481 0158  
                             u677 00E0                               wreg 0009                              ?_ISR 0070  
                            l1400 01AA                              l1402 01B5                              l1420 01CA  
                            l1412 01C0                              l1404 01B9                              l1500 00D6  
                            l1422 01D5                              l1414 01C6                              l1406 01BF  
                            l1510 00EA                              l1502 00D8                              l1440 01EA  
                            l1432 01E0                              l1424 01D9                              l1416 01C7  
                            l1360 028D                              l1520 00FF                              l1512 00EC  
                            l1504 00DA                              l1442 01ED                              l1434 01E6  
                            l1426 01DF                              l1418 01C8                              l1362 028F  
                            l1370 0297                              l1530 0106                              l1522 0101  
                            l1514 00F1                              l1506 00E7                              l1444 01F1  
                            l1436 01E7                              l1356 029C                              l1364 0290  
                            l1372 0298                              l1380 0264                              l1540 0111  
                            l1524 0102                              l1516 00F2                              l1532 0108  
                            l1508 00E9                              l1438 01E8                              l1446 0280  
                            l1366 0291                              l1358 028A                              l1374 0299  
                            l1382 0269                              l1470 0258                              l1462 0232  
                            l1550 0122                              l1542 0113                              l1534 010D  
                            l1526 0104                              l1518 00F4                              l1392 01A0  
                            l1448 0285                              l1368 0294                              l1384 026A  
                            l1376 025A                              l1464 0249                              l1560 0149  
                            l1552 0127                              l1544 0117                              l1536 010E  
                            l1528 0105                              l1394 01A6                              l1386 019F  
                            l1378 025F                              l1466 0255                              l1570 0151  
                            l1562 014B                              l1546 011A                              l1554 012C  
                            l1538 0110                              l1396 01A7                              l1468 0257  
                            l1580 0160                              l1572 0152                              l1564 014C  
                            l1556 0143                              l1548 011D                              l1398 01A8  
                            l1582 0165                              l1590 0172                              l1566 014D  
                            l1558 0148                              l1574 0153                              l1742 0135  
                            l1494 00CC                              l1744 017A                              l1584 0166  
                            l1592 0185                              l1576 0159                              l1568 014F  
                            l1496 00CF                              l1746 0193                              l1594 0188  
                            l1586 0168                              l1578 015B                              l1498 00D0  
                            l1588 016D                              l1598 018A                              _data 0026  
                            _main 00CC                              fsr1h 0007                              indf1 0001  
                            fsr1l 0006                              btemp 007E                              start 00AF  
                __end_of_ADC_init 02A2              _MENU_programmer_mode 002A                             ??_ISR 0077  
                           ?_main 0070                             _T1CON 0018                             _T2CON 001C  
                           i1l120 027D                             i1l119 0276                             i1l231 0231  
                           i1l223 00AD                             _RCREG 0199                             _RCSTA 019D  
                           u40_20 0272                             u40_21 0271                             u41_20 0276  
                           u41_21 0275                             _TMR1H 0017                             _TMR1L 0016  
                           u42_20 0215                             u50_20 0020                             u42_21 0214  
                           u50_21 001F                             _SPBRG 019B                             u43_20 022E  
                           u51_20 002A                             u43_21 022D                             u51_21 0029  
                           u60_20 0064                             u52_20 0032                             u60_21 0063  
                           u52_21 0031                             u61_20 006E                             u53_20 003C  
                           u61_21 006B                             u53_21 003B                             u54_20 0042  
                           u54_21 0041                             u62_24 0070                             u63_20 0076  
                           u55_20 004C                             u63_21 0075                             u55_21 0049  
                           u64_20 007E                             u64_21 007D                             u56_24 004E  
                           u65_20 0098                             u57_20 0053                             u49_20 000A  
                           u65_21 0097                             u57_21 0052                             u49_21 0009  
                           u66_20 00A6                             u58_20 005D                             u66_21 00A5  
                           u58_21 005A                             u59_24 005F                             u68_27 0013  
                           _TXREG 019A                             _TXSTA 019E                        _SR_write40 019D  
               _f_receive_problem 0028                             status 0003                             wtemp0 007E  
                 check_cks@result 0074                   __initialization 00B0                 _f_packet_complete 0029  
                    __end_of_main 019D                  ?_programmer_init 0070                            ??_main 0036  
__end_of_UART_receive_error_check 027E                            _ADCON0 009D                            _ADCON1 009E  
                          _ADRESH 009C                            i1l1450 026D                            i1l1452 0272  
                          i1l1620 001B                            i1l1612 0006                            i1l1454 027A  
                          i1l1622 0020                            i1l1630 002E                            i1l1614 000A  
                          i1l1480 020B                            i1l1472 01FD                            i1l1640 004E  
                          i1l1632 0032                            i1l1624 002A                            i1l1616 000E  
                          i1l1458 027C                            i1l1490 0230                            i1l1482 020F  
                          i1l1642 0053                            i1l1634 003C                            i1l1650 0072  
                          i1l1626 002B                            i1l1618 001A                            i1l1484 0215  
                          i1l1660 0083                            i1l1652 0076                            i1l1644 005F  
                          i1l1636 003D                            i1l1628 002D                            i1l1486 022E  
                          i1l1478 0200                            i1l1670 009A                            i1l1654 007E  
                          i1l1662 0087                            i1l1646 0064                            i1l1638 0042  
                          i1l1680 00AA                            i1l1672 009C                            i1l1664 008E  
                          i1l1656 0080                            i1l1648 0070                            i1l1674 009D  
                          i1l1666 0092                            i1l1658 0082                            i1l1676 009E  
                          i1l1668 0098                            i1l1678 00A6                 __end_of_UART_init 026D  
               __end_of_UART_send 028A                 __end_of_TMR1_init 0294                 __end_of_TMR2_init 029C  
                     ?_SR_write40 002C                         ?_ADC_init 0070           __end_of__initialization 00C9  
                  __pcstackCOMMON 0070                      __pidataBANK0 02A2                        ??_ADC_init 002C  
        _UART_receive_error_check 026D                        __pbssBANK0 0020                        __pmaintext 00CC  
                      __pintentry 0004                 __end_of_check_cks 0232                   SR_write40@i_133 0034  
                 SR_write40@i_134 0035                        check_cks@i 0076                           _address 0024  
                         __ptext1 0232                           __ptext2 025A                           __ptext3 0294  
                         __ptext4 028A                           __ptext5 029C                           __ptext6 027E  
                         __ptext7 019D                           __ptext9 01FD                           _command 0038  
                       _T1CONbits 0018                         _T2CONbits 001C              end_of_initialization 00C9  
                   _f_blink_green 0079                         _RCSTAbits 019D                         _UART_init 025A  
                       _UART_send 027E                         _TMR1_init 028A                         _TMR2_init 0294  
                    ??_SR_write40 0030                         _TRISAbits 008C                         _TRISBbits 008D  
                       _TXSTAbits 019E              _UART_receive_pointer 007C                 SR_write40@address 002E  
              __end_of_SR_write40 01FD                 SR_write40@command 0032                       _BAUDCONbits 019F  
      ??_UART_receive_error_check 0070                        ?_UART_init 0070                        ?_UART_send 0070  
                      ?_TMR1_init 0070                        ?_TMR2_init 0070               start_initialization 00B0  
                     __end_of_ISR 00AF                       __pdataBANK0 0038                       _f_blink_red 007B  
                     __pbssCOMMON 0079                         ___latbits 0000                     __pcstackBANK0 002C  
               ??_programmer_init 002C                         _check_cks 01FD                       ??_UART_init 002C  
                     ??_UART_send 002C                       ??_TMR1_init 002C                       ??_TMR2_init 002C  
                  SR_write40@data 002C                          _ADC_init 029C                          _LATAbits 010C  
                        _LATBbits 010D                        ?_check_cks 0070                          _PIE1bits 0091  
                        _PIR1bits 0011                        _ADCON0bits 009D               _UART_receive_buffer 0020  
           _MENU_f_first_entrance 0039                        _ANSELBbits 018D                     UART_send@data 002C  
                        __ptext10 026D                       ??_check_cks 0070                          int$flags 007E  
                      _INTCONbits 000B                   _programmer_init 0232                      _TMR1_counter 007D  
                    _TMR2_counter 002B                          intlevel1 0000         ?_UART_receive_error_check 0070  
                  _f_blink_orange 007A                       SR_write40@i 0033  
